Archive member included because of file (symbol)

D:\software_xqy\CCore_IDE/tool-chain/ccore-elf/lib/gcc/mcore-elf/4.6.0/c0_div\libgcc.a(_addsub_df.o)
                              ./src/common/debug.o (__adddf3)
D:\software_xqy\CCore_IDE/tool-chain/ccore-elf/lib/gcc/mcore-elf/4.6.0/c0_div\libgcc.a(_mul_df.o)
                              ./src/common/debug.o (__muldf3)
D:\software_xqy\CCore_IDE/tool-chain/ccore-elf/lib/gcc/mcore-elf/4.6.0/c0_div\libgcc.a(_div_df.o)
                              ./src/common/debug.o (__divdf3)
D:\software_xqy\CCore_IDE/tool-chain/ccore-elf/lib/gcc/mcore-elf/4.6.0/c0_div\libgcc.a(_eq_df.o)
                              ./src/common/debug.o (__eqdf2)
D:\software_xqy\CCore_IDE/tool-chain/ccore-elf/lib/gcc/mcore-elf/4.6.0/c0_div\libgcc.a(_ne_df.o)
                              ./src/common/debug.o (__nedf2)
D:\software_xqy\CCore_IDE/tool-chain/ccore-elf/lib/gcc/mcore-elf/4.6.0/c0_div\libgcc.a(_gt_df.o)
                              ./src/common/debug.o (__gtdf2)
D:\software_xqy\CCore_IDE/tool-chain/ccore-elf/lib/gcc/mcore-elf/4.6.0/c0_div\libgcc.a(_lt_df.o)
                              ./src/common/debug.o (__ltdf2)
D:\software_xqy\CCore_IDE/tool-chain/ccore-elf/lib/gcc/mcore-elf/4.6.0/c0_div\libgcc.a(_si_to_df.o)
                              ./src/moddev/lcd/dev_lcd.o (__floatsidf)
D:\software_xqy\CCore_IDE/tool-chain/ccore-elf/lib/gcc/mcore-elf/4.6.0/c0_div\libgcc.a(_df_to_si.o)
                              ./src/moddev/lcd/dev_lcd.o (__fixdfsi)
D:\software_xqy\CCore_IDE/tool-chain/ccore-elf/lib/gcc/mcore-elf/4.6.0/c0_div\libgcc.a(_thenan_df.o)
                              D:\software_xqy\CCore_IDE/tool-chain/ccore-elf/lib/gcc/mcore-elf/4.6.0/c0_div\libgcc.a(_addsub_df.o) (__thenan_df)
D:\software_xqy\CCore_IDE/tool-chain/ccore-elf/lib/gcc/mcore-elf/4.6.0/c0_div\libgcc.a(_muldi3.o)
                              D:\software_xqy\CCore_IDE/tool-chain/ccore-elf/lib/gcc/mcore-elf/4.6.0/c0_div\libgcc.a(_mul_df.o) (__muldi3)
D:\software_xqy\CCore_IDE/tool-chain/ccore-elf/lib/gcc/mcore-elf/4.6.0/c0_div\libgcc.a(_clzsi2.o)
                              D:\software_xqy\CCore_IDE/tool-chain/ccore-elf/lib/gcc/mcore-elf/4.6.0/c0_div\libgcc.a(_si_to_df.o) (__clzsi2)
D:\software_xqy\CCore_IDE/tool-chain/ccore-elf/lib/gcc/mcore-elf/4.6.0/c0_div\libgcc.a(_pack_df.o)
                              D:\software_xqy\CCore_IDE/tool-chain/ccore-elf/lib/gcc/mcore-elf/4.6.0/c0_div\libgcc.a(_addsub_df.o) (__pack_d)
D:\software_xqy\CCore_IDE/tool-chain/ccore-elf/lib/gcc/mcore-elf/4.6.0/c0_div\libgcc.a(_unpack_df.o)
                              D:\software_xqy\CCore_IDE/tool-chain/ccore-elf/lib/gcc/mcore-elf/4.6.0/c0_div\libgcc.a(_addsub_df.o) (__unpack_d)
D:\software_xqy\CCore_IDE/tool-chain/ccore-elf/lib/gcc/mcore-elf/4.6.0/c0_div\libgcc.a(_fpcmp_parts_df.o)
                              D:\software_xqy\CCore_IDE/tool-chain/ccore-elf/lib/gcc/mcore-elf/4.6.0/c0_div\libgcc.a(_eq_df.o) (__fpcmp_parts_d)
D:\software_xqy\CCore_IDE/tool-chain/ccore-elf/lib/gcc/mcore-elf/4.6.0/c0_div\libgcc.a(_lshrdi3.o)
                              D:\software_xqy\CCore_IDE/tool-chain/ccore-elf/lib/gcc/mcore-elf/4.6.0/c0_div\libgcc.a(_pack_df.o) (__lshrdi3)
D:\software_xqy\CCore_IDE/tool-chain/ccore-elf/lib/gcc/mcore-elf/4.6.0/c0_div\libgcc.a(_ashldi3.o)
                              D:\software_xqy\CCore_IDE/tool-chain/ccore-elf/lib/gcc/mcore-elf/4.6.0/c0_div\libgcc.a(_pack_df.o) (__ashldi3)
D:\software_xqy\CCore_IDE/tool-chain/ccore-elf/lib/gcc/mcore-elf/4.6.0/c0_div\libgcc.a(_clz.o)
                              D:\software_xqy\CCore_IDE/tool-chain/ccore-elf/lib/gcc/mcore-elf/4.6.0/c0_div\libgcc.a(_clzsi2.o) (__clz_tab)
D:\software_xqy\CCore_IDE/tool-chain/ccore-elf/mcore-elf/lib/c0_div\libc.a(lib_a-abort.o)
                              ./src/common/debug.o (abort)
D:\software_xqy\CCore_IDE/tool-chain/ccore-elf/mcore-elf/lib/c0_div\libc.a(lib_a-memcmp.o)
                              ./src/moddev/bt_update/bt_update.o (memcmp)
D:\software_xqy\CCore_IDE/tool-chain/ccore-elf/mcore-elf/lib/c0_div\libc.a(lib_a-memset.o)
                              ./src/sysbus/usb/drv_usb.o (memset)
D:\software_xqy\CCore_IDE/tool-chain/ccore-elf/mcore-elf/lib/c0_div\libc.a(lib_a-s_modf.o)
                              ./src/common/debug.o (modf)
D:\software_xqy\CCore_IDE/tool-chain/ccore-elf/mcore-elf/lib/c0_div\libc.a(lib_a-signal.o)
                              D:\software_xqy\CCore_IDE/tool-chain/ccore-elf/mcore-elf/lib/c0_div\libc.a(lib_a-abort.o) (raise)
D:\software_xqy\CCore_IDE/tool-chain/ccore-elf/mcore-elf/lib/c0_div\libc.a(lib_a-signalr.o)
                              D:\software_xqy\CCore_IDE/tool-chain/ccore-elf/mcore-elf/lib/c0_div\libc.a(lib_a-signal.o) (_kill_r)
D:\software_xqy\CCore_IDE/tool-chain/ccore-elf/mcore-elf/lib/c0_div\libc.a(lib_a-strcat.o)
                              ./src/fs/xgdfs/fs_test.o (strcat)
D:\software_xqy\CCore_IDE/tool-chain/ccore-elf/mcore-elf/lib/c0_div\libc.a(lib_a-strcmp.o)
                              ./src/fs/xgdfs/SysFile.o (strcmp)
D:\software_xqy\CCore_IDE/tool-chain/ccore-elf/mcore-elf/lib/c0_div\libc.a(lib_a-strcpy.o)
                              ./src/sysdev/usb/dev_usb.o (strcpy)
D:\software_xqy\CCore_IDE/tool-chain/ccore-elf/mcore-elf/lib/c0_div\libc.a(lib_a-strlen.o)
                              ./src/security/app/file_auth.o (strlen)
D:\software_xqy\CCore_IDE/tool-chain/ccore-elf/mcore-elf/lib/c0_div\libc.a(lib_a-impure.o)
                              D:\software_xqy\CCore_IDE/tool-chain/ccore-elf/mcore-elf/lib/c0_div\libc.a(lib_a-signal.o) (_impure_ptr)
D:\software_xqy\CCore_IDE/tool-chain/ccore-elf/mcore-elf/lib/c0_div\libc.a(lib_a-mallocr.o)
                              D:\software_xqy\CCore_IDE/tool-chain/ccore-elf/mcore-elf/lib/c0_div\libc.a(lib_a-signal.o) (_malloc_r)
D:\software_xqy\CCore_IDE/tool-chain/ccore-elf/mcore-elf/lib/c0_div\libc.a(lib_a-mlock.o)
                              D:\software_xqy\CCore_IDE/tool-chain/ccore-elf/mcore-elf/lib/c0_div\libc.a(lib_a-mallocr.o) (__malloc_lock)
D:\software_xqy\CCore_IDE/tool-chain/ccore-elf/mcore-elf/lib/c0_div\libc.a(lib_a-reent.o)
                              D:\software_xqy\CCore_IDE/tool-chain/ccore-elf/mcore-elf/lib/c0_div\libc.a(lib_a-signalr.o) (errno)
D:\software_xqy\CCore_IDE/tool-chain/ccore-elf/mcore-elf/lib/c0_div\libc.a(lib_a-sbrkr.o)
                              D:\software_xqy\CCore_IDE/tool-chain/ccore-elf/mcore-elf/lib/c0_div\libc.a(lib_a-mallocr.o) (_sbrk_r)
D:\software_xqy\CCore_IDE/tool-chain/ccore-elf/mcore-elf/lib/c0_div\libc.a(lib_a-freer.o)
                              D:\software_xqy\CCore_IDE/tool-chain/ccore-elf/mcore-elf/lib/c0_div\libc.a(lib_a-mallocr.o) (_free_r)
D:\software_xqy\CCore_IDE/tool-chain/ccore-elf/mcore-elf/lib/c0_div\libcmb.a(sbrk.o)
                              D:\software_xqy\CCore_IDE/tool-chain/ccore-elf/mcore-elf/lib/c0_div\libc.a(lib_a-sbrkr.o) (_sbrk)
D:\software_xqy\CCore_IDE/tool-chain/ccore-elf/mcore-elf/lib/c0_div\libcmb.a(write.o)
                              D:\software_xqy\CCore_IDE/tool-chain/ccore-elf/mcore-elf/lib/c0_div\libcmb.a(sbrk.o) (_write)
D:\software_xqy\CCore_IDE/tool-chain/ccore-elf/mcore-elf/lib/c0_div\libcmb.a(cmb-exit.o)
                              D:\software_xqy\CCore_IDE/tool-chain/ccore-elf/mcore-elf/lib/c0_div\libc.a(lib_a-abort.o) (_exit)
D:\software_xqy\CCore_IDE/tool-chain/ccore-elf/mcore-elf/lib/c0_div\libcmb.a(cmb-outbyte.o)
                              D:\software_xqy\CCore_IDE/tool-chain/ccore-elf/mcore-elf/lib/c0_div\libcmb.a(write.o) (outbyte)
D:\software_xqy\CCore_IDE/tool-chain/ccore-elf/mcore-elf/lib/c0_div\libcmb.a(getpid.o)
                              D:\software_xqy\CCore_IDE/tool-chain/ccore-elf/mcore-elf/lib/c0_div\libc.a(lib_a-signalr.o) (_getpid)
D:\software_xqy\CCore_IDE/tool-chain/ccore-elf/mcore-elf/lib/c0_div\libcmb.a(kill.o)
                              D:\software_xqy\CCore_IDE/tool-chain/ccore-elf/mcore-elf/lib/c0_div\libc.a(lib_a-signalr.o) (_kill)
D:\work\k205_gx\K205_360S\CORE\src\drv\libEflash.a(eflash.o)
                              ./src/sysdrv/flash/flash.o (eflash_init)
D:\work\k205_gx\K205_360S\CORE\src\drv\libEflash.a(cache.o)
                              D:\work\k205_gx\K205_360S\CORE\src\drv\libEflash.a(eflash.o) (page_cache_clean)
D:\work\k205_gx\K205_360S\CORE\src\drv\libCUni360S_mcc.a(mcc_bsp.o)
                              ./src/ccore/vector_table.o (DMA_IRQHandler)
D:\work\k205_gx\K205_360S\CORE\src\drv\libCUni360S_mcc.a(mcc_decode.o)
                              D:\work\k205_gx\K205_360S\CORE\src\drv\libCUni360S_mcc.a(mcc_bsp.o) (p_mv)
D:\work\k205_gx\K205_360S\CORE\src\drv\libCUni360S_mcc.a(mcc_lib.o)
                              D:\work\k205_gx\K205_360S\CORE\src\drv\libCUni360S_mcc.a(mcc_decode.o) (p_v_preprocess)
D:\work\k205_gx\K205_360S\CORE\src\drv\libAlgorithm.a(aes.o)
                              ./src/drv/alg_drv.o (AES_Enable)
D:\work\k205_gx\K205_360S\CORE\src\drv\libAlgorithm.a(crypt.o)
                              ./src/drv/alg_drv.o (RsaModuleEnable)
D:\work\k205_gx\K205_360S\CORE\src\drv\libAlgorithm.a(des.o)
                              ./src/drv/alg_drv.o (DES_Enable)
D:\work\k205_gx\K205_360S\CORE\src\drv\libAlgorithm.a(lib.o)
                              ./src/drv/alg_drv.o (sign)
D:\work\k205_gx\K205_360S\CORE\src\drv\libAlgorithm.a(sha.o)
                              ./src/drv/alg_drv.o (SHA_Init)
D:\work\k205_gx\K205_360S\CORE\src\drv\libAlgorithm.a(sm2.o)
                              ./src/drv/alg_drv.o (EccBig32Initial)
D:\work\k205_gx\K205_360S\CORE\src\drv\libAlgorithm.a(sms4.o)
                              ./src/drv/alg_drv.o (SMS4_Enable)
D:\work\k205_gx\K205_360S\CORE\src\drv\libAlgorithm.a(bigint.o)
                              D:\work\k205_gx\K205_360S\CORE\src\drv\libAlgorithm.a(crypt.o) (BIG_Add)
D:\work\k205_gx\K205_360S\CORE\src\security\algorithm\libAlg.a(algorithm.o)
                              ./src/security/api/alg_api.o (dev_algorithm_sm4)
D:\work\k205_gx\K205_360S\CORE\src\security\algorithm\libAlg.a(algorithm_hardware.o)
                              D:\work\k205_gx\K205_360S\CORE\src\security\algorithm\libAlg.a(algorithm.o) (dev_hardware_getrandom)
D:\work\k205_gx\K205_360S\CORE\src\security\hal\libcpuhal.a(cpuhal.o)
                              ./src/security/app/sd_tamper.o (dev_cpuhal_init)
D:\work\k205_gx\K205_360S\CORE\src\security\hal\libcpuhal.a(pci_drv.o)
                              D:\work\k205_gx\K205_360S\CORE\src\security\hal\libcpuhal.a(cpuhal.o) (PCI_Init)
D:\work\k205_gx\K205_360S\CORE\src\security\sec_datastore\libsecstore.a(dev_secstore.o)
                              ./src/security/app/rootkey.o (dev_secstore_writedata)
D:\work\k205_gx\K205_360S\CORE\src\security\sec_datastore\libsecstore.a(dev_secstore_key.o)
                              D:\work\k205_gx\K205_360S\CORE\src\security\sec_datastore\libsecstore.a(dev_secstore.o) (dev_secstore_keyinfo)
D:\work\k205_gx\K205_360S\CORE\src\moddev\rfcard_mh1608\libnfc.a(ddi_rfcard_mh1608.o)
                              ./src/moddev/led/ddi_led.o (ddi_rf_open)
D:\work\k205_gx\K205_360S\CORE\src\moddev\rfcard_mh1608\libnfc.a(dev_rfcard_mh1608.o)
                              D:\work\k205_gx\K205_360S\CORE\src\moddev\rfcard_mh1608\libnfc.a(ddi_rfcard_mh1608.o) (dev_rf_para_init)
D:\work\k205_gx\K205_360S\CORE\src\moddev\rfcard_mh1608\libnfc.a(drv_rfcard_mh1608.o)
                              D:\work\k205_gx\K205_360S\CORE\src\moddev\rfcard_mh1608\libnfc.a(ddi_rfcard_mh1608.o) (g_cl_param)
D:\work\k205_gx\K205_360S\CORE\src\moddev\iccard\libicc.a(ddi_iccard.o)
                              ./src/main/test.o (ddi_iccpsam_open)
D:\work\k205_gx\K205_360S\CORE\src\moddev\iccard\libicc.a(dev_iccard.o)
                              D:\work\k205_gx\K205_360S\CORE\src\moddev\iccard\libicc.a(ddi_iccard.o) (icc_deactivation)
D:\work\k205_gx\K205_360S\CORE\src\moddev\iccard\libicc.a(drv_iccard.o)
                              D:\work\k205_gx\K205_360S\CORE\src\moddev\iccard\libicc.a(dev_iccard.o) (ISO7816DeInit)
D:\work\k205_gx\K205_360S\CORE\src\moddev\iccard\libicc.a(icc_hardware.o)
                              ./src/drv/usi_drv.o (DelayMS)
D:\work\k205_gx\K205_360S\CORE\src\moddev\bluetooth\libbt_lib.a(dev_bt_api.o)
                              ./src/moddev/bt_update/bt_update.o (ddi_bt_open)
D:\work\k205_gx\K205_360S\CORE\src\moddev\bluetooth\libbt_lib.a(yc1021.o)
                              D:\work\k205_gx\K205_360S\CORE\src\moddev\bluetooth\libbt_lib.a(dev_bt_api.o) (bt_to_app_fifo)
D:\work\k205_gx\K205_360S\CORE\src\moddev\bluetooth\libbt_lib.a(app_fifo.o)
                              D:\work\k205_gx\K205_360S\CORE\src\moddev\bluetooth\libbt_lib.a(yc1021.o) (app_fifo_init)
D:\work\k205_gx\K205_360S\CORE\src\ccore\libReadChipSn.a(LibReadChipSN.o)
                              D:\work\k205_gx\K205_360S\CORE\src\security\hal\libcpuhal.a(cpuhal.o) (ReadChipSN)

Allocating common symbols
Common symbol       size              file

errno               0x4               D:\software_xqy\CCore_IDE/tool-chain/ccore-elf/mcore-elf/lib/c0_div\libc.a(lib_a-reent.o)

Discarded input sections

 .text          0x00000000        0x0 ./src/sysdrv/timer/timer.o
 .data          0x00000000        0x0 ./src/sysdrv/timer/timer.o
 .bss           0x00000000        0x0 ./src/sysdrv/timer/timer.o
 .text          0x00000000        0x0 ./src/sysdrv/rtc/RTC.o
 .bss           0x00000000        0x7 ./src/sysdrv/rtc/RTC.o
 .text.batGetCalendar
                0x00000000       0x4c ./src/sysdrv/rtc/RTC.o
 .text.batRTCAlarm_WeekHHMMSS
                0x00000000        0x2 ./src/sysdrv/rtc/RTC.o
 .text          0x00000000        0x0 ./src/sysdrv/flash/flash.o
 .data          0x00000000        0x0 ./src/sysdrv/flash/flash.o
 .bss           0x00000000        0x0 ./src/sysdrv/flash/flash.o
 .text.dmaCheckFF
                0x00000000        0x4 ./src/sysdrv/flash/flash.o
 .text.EFLASH_HalfWordRead
                0x00000000        0x4 ./src/sysdrv/flash/flash.o
 .text.EFLASH_WordRead
                0x00000000        0x4 ./src/sysdrv/flash/flash.o
 .text.EFLASH_WordsRead
                0x00000000       0x18 ./src/sysdrv/flash/flash.o
 .text.EFLASH_WordProg
                0x00000000       0x3c ./src/sysdrv/flash/flash.o
 .text          0x00000000        0x0 ./src/sysdrv/SysTick/systick.o
 .data          0x00000000        0x0 ./src/sysdrv/SysTick/systick.o
 .text          0x00000000        0x0 ./src/sysdrv/ADC/adc.o
 .data          0x00000000        0x0 ./src/sysdrv/ADC/adc.o
 .bss           0x00000000        0x0 ./src/sysdrv/ADC/adc.o
 .debug_info    0x00000000       0x81 ./src/sysdrv/ADC/adc.o
 .debug_abbrev  0x00000000       0x2a ./src/sysdrv/ADC/adc.o
 .debug_line    0x00000000       0x24 ./src/sysdrv/ADC/adc.o
 .debug_str     0x00000000       0xdf ./src/sysdrv/ADC/adc.o
 .comment       0x00000000       0x12 ./src/sysdrv/ADC/adc.o
 .text          0x00000000        0x0 ./src/sysdev/wdt/dev_wdt.o
 .data          0x00000000        0x0 ./src/sysdev/wdt/dev_wdt.o
 .text          0x00000000        0x0 ./src/sysdev/usb/dev_usb.o
 .text.print_buffer
                0x00000000        0x2 ./src/sysdev/usb/dev_usb.o
 .text.usb_cdc_app
                0x00000000        0x2 ./src/sysdev/usb/dev_usb.o
 .text.usb_cdc_app_download
                0x00000000        0x2 ./src/sysdev/usb/dev_usb.o
 .text.usb_hid_app_usr_data
                0x00000000        0x2 ./src/sysdev/usb/dev_usb.o
 .text.usb_hid_app_download
                0x00000000        0x2 ./src/sysdev/usb/dev_usb.o
 .text.usb_set_vid_pid
                0x00000000        0x2 ./src/sysdev/usb/dev_usb.o
 .text          0x00000000        0x0 ./src/sysdev/uart/dev_uart.o
 .data          0x00000000        0x0 ./src/sysdev/uart/dev_uart.o
 .text          0x00000000        0x0 ./src/sysdev/time/dev_time.o
 .data          0x00000000        0x0 ./src/sysdev/time/dev_time.o
 .text.dev_time_pass
                0x00000000       0x20 ./src/sysdev/time/dev_time.o
 .text.delayus  0x00000000        0x2 ./src/sysdev/time/dev_time.o
 .text          0x00000000        0x0 ./src/sysdev/spi/dev_spimaster.o
 .data          0x00000000        0x0 ./src/sysdev/spi/dev_spimaster.o
 .text.dev_spimaster_close
                0x00000000       0x34 ./src/sysdev/spi/dev_spimaster.o
 .text.dev_spimaster_read
                0x00000000       0x5c ./src/sysdev/spi/dev_spimaster.o
 .text          0x00000000        0x0 ./src/sysdev/spi/dev_spislave.o
 .data          0x00000000        0x0 ./src/sysdev/spi/dev_spislave.o
 .bss           0x00000000        0x3 ./src/sysdev/spi/dev_spislave.o
 .text.dev_spislave_open
                0x00000000       0x3c ./src/sysdev/spi/dev_spislave.o
 .text.dev_spislave_close
                0x00000000       0x38 ./src/sysdev/spi/dev_spislave.o
 .text.dev_spislave_write
                0x00000000       0x30 ./src/sysdev/spi/dev_spislave.o
 .text.dev_spislave_read
                0x00000000       0x34 ./src/sysdev/spi/dev_spislave.o
 .debug_frame   0x00000000       0x74 ./src/sysdev/spi/dev_spislave.o
 .debug_info    0x00000000      0x1b2 ./src/sysdev/spi/dev_spislave.o
 .debug_abbrev  0x00000000       0x9a ./src/sysdev/spi/dev_spislave.o
 .debug_loc     0x00000000      0x171 ./src/sysdev/spi/dev_spislave.o
 .debug_aranges
                0x00000000       0x38 ./src/sysdev/spi/dev_spislave.o
 .debug_ranges  0x00000000       0x28 ./src/sysdev/spi/dev_spislave.o
 .debug_line    0x00000000      0x1e9 ./src/sysdev/spi/dev_spislave.o
 .debug_str     0x00000000      0x132 ./src/sysdev/spi/dev_spislave.o
 .comment       0x00000000       0x12 ./src/sysdev/spi/dev_spislave.o
 .text          0x00000000        0x0 ./src/sysdev/rtc/dev_rtc.o
 .data          0x00000000        0x0 ./src/sysdev/rtc/dev_rtc.o
 .bss           0x00000000        0x0 ./src/sysdev/rtc/dev_rtc.o
 .text.JudgeTime_1
                0x00000000       0xc4 ./src/sysdev/rtc/dev_rtc.o
 .text.dev_rtc_close
                0x00000000        0x2 ./src/sysdev/rtc/dev_rtc.o
 .text.ddi_sys_pm_set_alarm
                0x00000000      0x2bc ./src/sysdev/rtc/dev_rtc.o
 .rodata        0x00000000       0x68 ./src/sysdev/rtc/dev_rtc.o
 .text          0x00000000        0x0 ./src/sysdev/gpio/dev_gpio.o
 .data          0x00000000        0x0 ./src/sysdev/gpio/dev_gpio.o
 .bss           0x00000000        0x0 ./src/sysdev/gpio/dev_gpio.o
 .text.dev_iomutex_setsta
                0x00000000        0x4 ./src/sysdev/gpio/dev_gpio.o
 .text          0x00000000        0x0 ./src/sysdev/flash/dev_flash.o
 .data          0x00000000        0x0 ./src/sysdev/flash/dev_flash.o
 .bss           0x00000000        0x0 ./src/sysdev/flash/dev_flash.o
 .text.dev_flash_check
                0x00000000        0x4 ./src/sysdev/flash/dev_flash.o
 .text.flashErasePage
                0x00000000       0x20 ./src/sysdev/flash/dev_flash.o
 .text.dev_flash_erase_x
                0x00000000       0x28 ./src/sysdev/flash/dev_flash.o
 .text          0x00000000        0x0 ./src/sysdev/capture/dev_capture.o
 .data          0x00000000        0x0 ./src/sysdev/capture/dev_capture.o
 .bss           0x00000000        0x0 ./src/sysdev/capture/dev_capture.o
 .debug_info    0x00000000       0x73 ./src/sysdev/capture/dev_capture.o
 .debug_abbrev  0x00000000       0x2a ./src/sysdev/capture/dev_capture.o
 .debug_line    0x00000000       0x24 ./src/sysdev/capture/dev_capture.o
 .debug_str     0x00000000       0xc6 ./src/sysdev/capture/dev_capture.o
 .comment       0x00000000       0x12 ./src/sysdev/capture/dev_capture.o
 .text          0x00000000        0x0 ./src/sysdev/adc/dev_adc.o
 .data          0x00000000        0x0 ./src/sysdev/adc/dev_adc.o
 .text.dev_adc_close
                0x00000000       0x20 ./src/sysdev/adc/dev_adc.o
 .text.dev_adc_init
                0x00000000        0x2 ./src/sysdev/adc/dev_adc.o
 .text          0x00000000        0x0 ./src/sysbus/usb/drv_usb.o
 .text.usb_pullup_set
                0x00000000       0x40 ./src/sysbus/usb/drv_usb.o
 .text.usb_no   0x00000000        0x2 ./src/sysbus/usb/drv_usb.o
 .text.USBDev_Suspend
                0x00000000       0x1c ./src/sysbus/usb/drv_usb.o
 .text.usb_set_configuration
                0x00000000       0x10 ./src/sysbus/usb/drv_usb.o
 .text          0x00000000        0x0 ./src/sysbus/uart/UART.o
 .text          0x00000000        0x0 ./src/sysbus/spi/SPI_MASTER.o
 .data          0x00000000        0x0 ./src/sysbus/spi/SPI_MASTER.o
 .text.SpiMasterDeinit
                0x00000000       0x4c ./src/sysbus/spi/SPI_MASTER.o
 .text.SpiMasterReadBytes
                0x00000000       0x3c ./src/sysbus/spi/SPI_MASTER.o
 .text          0x00000000        0x0 ./src/sysbus/spi/SPI_SLAVE.o
 .data          0x00000000        0x0 ./src/sysbus/spi/SPI_SLAVE.o
 .bss           0x00000000        0xc ./src/sysbus/spi/SPI_SLAVE.o
 .text.SpiSlaveInit
                0x00000000        0x4 ./src/sysbus/spi/SPI_SLAVE.o
 .text.SpiSlaveDeinit
                0x00000000        0x4 ./src/sysbus/spi/SPI_SLAVE.o
 .text.SpiSlaveWriteBytes
                0x00000000        0x4 ./src/sysbus/spi/SPI_SLAVE.o
 .text.SpiSlaveReadBytes
                0x00000000        0x4 ./src/sysbus/spi/SPI_SLAVE.o
 .text.spi1_interrupt_isr
                0x00000000        0x2 ./src/sysbus/spi/SPI_SLAVE.o
 .debug_frame   0x00000000       0x64 ./src/sysbus/spi/SPI_SLAVE.o
 .debug_info    0x00000000      0x358 ./src/sysbus/spi/SPI_SLAVE.o
 .debug_abbrev  0x00000000      0x14f ./src/sysbus/spi/SPI_SLAVE.o
 .debug_loc     0x00000000       0x4c ./src/sysbus/spi/SPI_SLAVE.o
 .debug_aranges
                0x00000000       0x40 ./src/sysbus/spi/SPI_SLAVE.o
 .debug_ranges  0x00000000       0x30 ./src/sysbus/spi/SPI_SLAVE.o
 .debug_line    0x00000000      0x134 ./src/sysbus/spi/SPI_SLAVE.o
 .debug_str     0x00000000      0x28b ./src/sysbus/spi/SPI_SLAVE.o
 .comment       0x00000000       0x12 ./src/sysbus/spi/SPI_SLAVE.o
 .text          0x00000000        0x0 ./src/sysbus/i2c/I2C.o
 .data          0x00000000        0x0 ./src/sysbus/i2c/I2C.o
 .bss           0x00000000        0x0 ./src/sysbus/i2c/I2C.o
 .text.i2cInit  0x00000000        0x2 ./src/sysbus/i2c/I2C.o
 .text.i2cDisable
                0x00000000        0x2 ./src/sysbus/i2c/I2C.o
 .text.i2cTxNByte
                0x00000000        0x4 ./src/sysbus/i2c/I2C.o
 .text.i2cRxNByte
                0x00000000        0x4 ./src/sysbus/i2c/I2C.o
 .debug_frame   0x00000000       0x54 ./src/sysbus/i2c/I2C.o
 .debug_info    0x00000000      0x137 ./src/sysbus/i2c/I2C.o
 .debug_abbrev  0x00000000       0xa5 ./src/sysbus/i2c/I2C.o
 .debug_loc     0x00000000       0x26 ./src/sysbus/i2c/I2C.o
 .debug_aranges
                0x00000000       0x38 ./src/sysbus/i2c/I2C.o
 .debug_ranges  0x00000000       0x28 ./src/sysbus/i2c/I2C.o
 .debug_line    0x00000000       0xd8 ./src/sysbus/i2c/I2C.o
 .debug_str     0x00000000       0xee ./src/sysbus/i2c/I2C.o
 .comment       0x00000000       0x12 ./src/sysbus/i2c/I2C.o
 .text          0x00000000        0x0 ./src/sysbus/gpio/gpio.o
 .data          0x00000000        0x0 ./src/sysbus/gpio/gpio.o
 .bss           0x00000000        0x0 ./src/sysbus/gpio/gpio.o
 .text.gpioResetPullDownBit
                0x00000000        0x2 ./src/sysbus/gpio/gpio.o
 .text.gpioClearAllResume
                0x00000000        0x2 ./src/sysbus/gpio/gpio.o
 .text.gpioClearAllExtInt
                0x00000000        0x2 ./src/sysbus/gpio/gpio.o
 .text.gpioReadInputDataBit
                0x00000000        0x2 ./src/sysbus/gpio/gpio.o
 .text.gpioResetBit
                0x00000000        0x2 ./src/sysbus/gpio/gpio.o
 .text.gpioSetBit
                0x00000000        0x2 ./src/sysbus/gpio/gpio.o
 .text.gpioResetPullUpBit
                0x00000000        0x4 ./src/sysbus/gpio/gpio.o
 .text.gpioSetPullDownBit
                0x00000000        0x2 ./src/sysbus/gpio/gpio.o
 .text.gpioSetPullUpBit
                0x00000000        0x2 ./src/sysbus/gpio/gpio.o
 .text.gpioSetDirOut
                0x00000000       0x24 ./src/sysbus/gpio/gpio.o
 .text          0x00000000        0x0 ./src/sysbus/capture/capture.o
 .data          0x00000000        0x0 ./src/sysbus/capture/capture.o
 .bss           0x00000000        0x0 ./src/sysbus/capture/capture.o
 .debug_info    0x00000000       0x81 ./src/sysbus/capture/capture.o
 .debug_abbrev  0x00000000       0x2a ./src/sysbus/capture/capture.o
 .debug_line    0x00000000       0x24 ./src/sysbus/capture/capture.o
 .debug_str     0x00000000       0xe7 ./src/sysbus/capture/capture.o
 .comment       0x00000000       0x12 ./src/sysbus/capture/capture.o
 .text          0x00000000        0x0 ./src/security/security_common/convertdata.o
 .data          0x00000000        0x0 ./src/security/security_common/convertdata.o
 .bss           0x00000000        0x0 ./src/security/security_common/convertdata.o
 .text.WriteBigInt
                0x00000000       0x32 ./src/security/security_common/convertdata.o
 .text.u32_to_u8
                0x00000000       0x38 ./src/security/security_common/convertdata.o
 .text.u8_to_u32
                0x00000000       0x44 ./src/security/security_common/convertdata.o
 .text.word_swap
                0x00000000       0x46 ./src/security/security_common/convertdata.o
 .text.OutputPK
                0x00000000       0x68 ./src/security/security_common/convertdata.o
 .text.OutputSK
                0x00000000       0xc8 ./src/security/security_common/convertdata.o
 .text.InputSK  0x00000000       0xec ./src/security/security_common/convertdata.o
 .text          0x00000000        0x0 ./src/security/security_common/security_common.o
 .data          0x00000000        0x0 ./src/security/security_common/security_common.o
 .bss           0x00000000        0x0 ./src/security/security_common/security_common.o
 .text.secommon_memcmp
                0x00000000       0x22 ./src/security/security_common/security_common.o
 .text.secommon_strcmp
                0x00000000       0x2c ./src/security/security_common/security_common.o
 .text.secommon_strlen
                0x00000000       0x10 ./src/security/security_common/security_common.o
 .text          0x00000000        0x0 ./src/security/secmgr/detect.o
 .data          0x00000000        0x0 ./src/security/secmgr/detect.o
 .bss           0x00000000        0x0 ./src/security/secmgr/detect.o
 .text.dev_detect_ISR_enable
                0x00000000       0x10 ./src/security/secmgr/detect.o
 .text.dev_detect_ISR_Disable
                0x00000000       0x10 ./src/security/secmgr/detect.o
 .rodata.str1.4
                0x00000000       0x22 ./src/security/secmgr/detect.o
 .text.dev_detect_getfirmwareauthstate
                0x00000000       0x38 ./src/security/secmgr/detect.o
 .text.detect_ISR
                0x00000000        0x2 ./src/security/secmgr/detect.o
 .text          0x00000000        0x0 ./src/security/key/key_dbg.o
 .data          0x00000000        0x0 ./src/security/key/key_dbg.o
 .bss           0x00000000        0x0 ./src/security/key/key_dbg.o
 .text          0x00000000        0x0 ./src/security/digitalsign/digitalsign_test.o
 .data          0x00000000        0x0 ./src/security/digitalsign/digitalsign_test.o
 .bss           0x00000000        0x0 ./src/security/digitalsign/digitalsign_test.o
 .rodata.str1.4
                0x00000000      0x180 ./src/security/digitalsign/digitalsign_test.o
 .text.test_get_auth_info
                0x00000000      0x1b4 ./src/security/digitalsign/digitalsign_test.o
 .text.test_get_auth_info_loop
                0x00000000       0x2c ./src/security/digitalsign/digitalsign_test.o
 .text.test_dev_digitalsign_authsign
                0x00000000      0x1b8 ./src/security/digitalsign/digitalsign_test.o
 .text.test_get_sign_info
                0x00000000       0x38 ./src/security/digitalsign/digitalsign_test.o
 .text.test_get_hash_info
                0x00000000       0x30 ./src/security/digitalsign/digitalsign_test.o
 .text.test_dev_digitalsign_authsign_loop
                0x00000000       0x20 ./src/security/digitalsign/digitalsign_test.o
 .text.digitalsign_test
                0x00000000       0x1c ./src/security/digitalsign/digitalsign_test.o
 .debug_frame   0x00000000       0xd8 ./src/security/digitalsign/digitalsign_test.o
 .debug_info    0x00000000      0x539 ./src/security/digitalsign/digitalsign_test.o
 .debug_abbrev  0x00000000      0x131 ./src/security/digitalsign/digitalsign_test.o
 .debug_loc     0x00000000      0x5ef ./src/security/digitalsign/digitalsign_test.o
 .debug_aranges
                0x00000000       0x50 ./src/security/digitalsign/digitalsign_test.o
 .debug_ranges  0x00000000       0x58 ./src/security/digitalsign/digitalsign_test.o
 .debug_line    0x00000000      0x49e ./src/security/digitalsign/digitalsign_test.o
 .debug_str     0x00000000      0x263 ./src/security/digitalsign/digitalsign_test.o
 .comment       0x00000000       0x12 ./src/security/digitalsign/digitalsign_test.o
 .text          0x00000000        0x0 ./src/security/app/admin_manage.o
 .data          0x00000000        0x0 ./src/security/app/admin_manage.o
 .bss           0x00000000        0x0 ./src/security/app/admin_manage.o
 .debug_info    0x00000000       0x81 ./src/security/app/admin_manage.o
 .debug_abbrev  0x00000000       0x2a ./src/security/app/admin_manage.o
 .debug_line    0x00000000       0x24 ./src/security/app/admin_manage.o
 .debug_str     0x00000000       0xea ./src/security/app/admin_manage.o
 .comment       0x00000000       0x12 ./src/security/app/admin_manage.o
 .text          0x00000000        0x0 ./src/security/app/advance.o
 .data          0x00000000        0x0 ./src/security/app/advance.o
 .bss           0x00000000        0x0 ./src/security/app/advance.o
 .debug_info    0x00000000       0x81 ./src/security/app/advance.o
 .debug_abbrev  0x00000000       0x2a ./src/security/app/advance.o
 .debug_line    0x00000000       0x24 ./src/security/app/advance.o
 .debug_str     0x00000000       0xe5 ./src/security/app/advance.o
 .comment       0x00000000       0x12 ./src/security/app/advance.o
 .text          0x00000000        0x0 ./src/security/app/cmd_proc.o
 .text.cmd_unknown_cmd_process
                0x00000000        0xc ./src/security/app/cmd_proc.o
 .text          0x00000000        0x0 ./src/security/app/ex_func.o
 .text.terminal_power_off
                0x00000000       0xb0 ./src/security/app/ex_func.o
 .text.dev_secmgr_getfmverison
                0x00000000       0x20 ./src/security/app/ex_func.o
 .text.calc_kcv
                0x00000000       0x64 ./src/security/app/ex_func.o
 .text.sec_log_init
                0x00000000       0x38 ./src/security/app/ex_func.o
 .text.write_sec_log
                0x00000000       0x3c ./src/security/app/ex_func.o
 .text.delete_sec_log
                0x00000000       0x14 ./src/security/app/ex_func.o
 .text.buffer_display
                0x00000000       0x48 ./src/security/app/ex_func.o
 .text.printf_buf
                0x00000000       0x24 ./src/security/app/ex_func.o
 .text.read_sec_log
                0x00000000       0x50 ./src/security/app/ex_func.o
 .text          0x00000000        0x0 ./src/security/app/file_auth.o
 .data          0x00000000        0x0 ./src/security/app/file_auth.o
 .bss           0x00000000        0x0 ./src/security/app/file_auth.o
 .text.padding_sign_info
                0x00000000       0x4c ./src/security/app/file_auth.o
 .rodata.str1.4
                0x00000000       0xae ./src/security/app/file_auth.o
 .text.opt_cert_file
                0x00000000       0xa4 ./src/security/app/file_auth.o
 .text.get_pk_info
                0x00000000       0x5c ./src/security/app/file_auth.o
 .rodata        0x00000000       0x40 ./src/security/app/file_auth.o
 .text.get_verify_baseinfo
                0x00000000      0x194 ./src/security/app/file_auth.o
 .text.shift_signature_verify
                0x00000000       0x98 ./src/security/app/file_auth.o
 .text.sign_verify_file
                0x00000000       0x68 ./src/security/app/file_auth.o
 .text.sign_verify
                0x00000000      0x394 ./src/security/app/file_auth.o
 .text.pci_find_cert
                0x00000000       0xd0 ./src/security/app/file_auth.o
 .text          0x00000000        0x0 ./src/security/app/file_opt.o
 .data          0x00000000        0x0 ./src/security/app/file_opt.o
 .bss           0x00000000        0xc ./src/security/app/file_opt.o
 .text.init_sec_para
                0x00000000       0x18 ./src/security/app/file_opt.o
 .text.pci_write_nand
                0x00000000       0x28 ./src/security/app/file_opt.o
 .rodata.str1.4
                0x00000000       0x47 ./src/security/app/file_opt.o
 .text.pci_get_file_len
                0x00000000       0x84 ./src/security/app/file_opt.o
 .text.pci_get_file_addr
                0x00000000       0x90 ./src/security/app/file_opt.o
 .text.pci_read_file
                0x00000000       0x2c ./src/security/app/file_opt.o
 .text.pci_copy_file
                0x00000000       0x50 ./src/security/app/file_opt.o
 .text.kern_read_file
                0x00000000       0x58 ./src/security/app/file_opt.o
 .text.kern_create_file
                0x00000000       0xa4 ./src/security/app/file_opt.o
 .text.kern_write_file
                0x00000000       0x60 ./src/security/app/file_opt.o
 .text.kern_access_file
                0x00000000       0x3c ./src/security/app/file_opt.o
 .text.kern_remove_file
                0x00000000       0x10 ./src/security/app/file_opt.o
 .text          0x00000000        0x0 ./src/security/app/pci_func.o
 .data          0x00000000        0x0 ./src/security/app/pci_func.o
 .bss           0x00000000        0x0 ./src/security/app/pci_func.o
 .text          0x00000000        0x0 ./src/security/app/possn.o
 .data          0x00000000        0x0 ./src/security/app/possn.o
 .bss           0x00000000        0x0 ./src/security/app/possn.o
 .debug_info    0x00000000       0x81 ./src/security/app/possn.o
 .debug_abbrev  0x00000000       0x2a ./src/security/app/possn.o
 .debug_line    0x00000000       0x24 ./src/security/app/possn.o
 .debug_str     0x00000000       0xe3 ./src/security/app/possn.o
 .comment       0x00000000       0x12 ./src/security/app/possn.o
 .text          0x00000000        0x0 ./src/security/app/protocol.o
 .data          0x00000000        0x0 ./src/security/app/protocol.o
 .text.test_send_com_data
                0x00000000       0x3c ./src/security/app/protocol.o
 .text          0x00000000        0x0 ./src/security/app/rootkey.o
 .data          0x00000000        0x0 ./src/security/app/rootkey.o
 .bss           0x00000000        0x0 ./src/security/app/rootkey.o
 .text.pci_read_rootkey
                0x00000000       0x44 ./src/security/app/rootkey.o
 .text.pci_read_elrckey
                0x00000000       0x78 ./src/security/app/rootkey.o
 .text          0x00000000        0x0 ./src/security/app/sd_tamper.o
 .data          0x00000000        0x0 ./src/security/app/sd_tamper.o
 .text.check_if_terminal_tamper
                0x00000000       0x34 ./src/security/app/sd_tamper.o
 .text.format_abnormal_disp
                0x00000000       0x5c ./src/security/app/sd_tamper.o
 .text.clear_tamper_when_inject_sn
                0x00000000        0x2 ./src/security/app/sd_tamper.o
 .text          0x00000000        0x0 ./src/security/app/sec_test.o
 .data          0x00000000        0x0 ./src/security/app/sec_test.o
 .bss           0x00000000        0x0 ./src/security/app/sec_test.o
 .debug_info    0x00000000       0x81 ./src/security/app/sec_test.o
 .debug_abbrev  0x00000000       0x2a ./src/security/app/sec_test.o
 .debug_line    0x00000000       0x24 ./src/security/app/sec_test.o
 .debug_str     0x00000000       0xe6 ./src/security/app/sec_test.o
 .comment       0x00000000       0x12 ./src/security/app/sec_test.o
 .text          0x00000000        0x0 ./src/security/api/alg_api.o
 .data          0x00000000        0x0 ./src/security/api/alg_api.o
 .bss           0x00000000        0x0 ./src/security/api/alg_api.o
 .text.pci_rsa_decrypt
                0x00000000       0x1c ./src/security/api/alg_api.o
 .text.sha256_bin
                0x00000000       0x14 ./src/security/api/alg_api.o
 .text.pci_hash_calc
                0x00000000       0x18 ./src/security/api/alg_api.o
 .text.pci_hash_calc_bin
                0x00000000       0x18 ./src/security/api/alg_api.o
 .text.CalculateLRCCheckvalue
                0x00000000       0x18 ./src/security/api/alg_api.o
 .text.des_complete_alg
                0x00000000       0xac ./src/security/api/alg_api.o
 .text.ddi_algorithm_getrandom
                0x00000000       0x10 ./src/security/api/alg_api.o
 .text.ddi_algorithm_tdes
                0x00000000       0x18 ./src/security/api/alg_api.o
 .text.ddi_algorithm_aes
                0x00000000       0x18 ./src/security/api/alg_api.o
 .text.ddi_algorithm_calculatemac
                0x00000000       0x14 ./src/security/api/alg_api.o
 .text.ddi_algorithm_generatersakey
                0x00000000       0x14 ./src/security/api/alg_api.o
 .text.ddi_algorithm_calrsapublic
                0x00000000       0x14 ./src/security/api/alg_api.o
 .text.ddi_algorithm_calrsaprivate
                0x00000000       0x14 ./src/security/api/alg_api.o
 .text.ddi_algorithm_sha1
                0x00000000       0x10 ./src/security/api/alg_api.o
 .text.ddi_algorithm_sha256
                0x00000000       0x10 ./src/security/api/alg_api.o
 .text.ddi_algorithm_sha512
                0x00000000       0x10 ./src/security/api/alg_api.o
 .text.ddi_algorithm_gensm2key
                0x00000000       0x10 ./src/security/api/alg_api.o
 .text.ddi_algorithm_sm2encrypt
                0x00000000       0x18 ./src/security/api/alg_api.o
 .text.ddi_algorithm_sm2decrypt
                0x00000000       0x18 ./src/security/api/alg_api.o
 .text.ddi_algorithm_sm3
                0x00000000       0x10 ./src/security/api/alg_api.o
 .text.ddi_algorithm_calsm4mac
                0x00000000       0x14 ./src/security/api/alg_api.o
 .text.ddi_algorithm_sm4
                0x00000000       0x18 ./src/security/api/alg_api.o
 .text.ddi_algorithm_smsign_hash
                0x00000000       0x20 ./src/security/api/alg_api.o
 .text.ddi_algorithm_sm2sign
                0x00000000       0x18 ./src/security/api/alg_api.o
 .text.ddi_algorithm_sm2verify
                0x00000000       0x18 ./src/security/api/alg_api.o
 .text          0x00000000        0x0 ./src/security/api/mem_api.o
 .data          0x00000000        0x0 ./src/security/api/mem_api.o
 .bss           0x00000000        0x0 ./src/security/api/mem_api.o
 .text.s_mem_cmp_des
                0x00000000       0x28 ./src/security/api/mem_api.o
 .text          0x00000000        0x0 ./src/security/algorithm/test/algorithm_test.o
 .data          0x00000000        0x0 ./src/security/algorithm/test/algorithm_test.o
 .bss           0x00000000        0x0 ./src/security/algorithm/test/algorithm_test.o
 .rodata.str1.4
                0x00000000      0x49f ./src/security/algorithm/test/algorithm_test.o
 .text.LogHexDemo
                0x00000000       0x54 ./src/security/algorithm/test/algorithm_test.o
 .text.rsatest_loop
                0x00000000      0x2f0 ./src/security/algorithm/test/algorithm_test.o
 .rodata        0x00000000      0x788 ./src/security/algorithm/test/algorithm_test.o
 .debug_frame   0x00000000       0x4c ./src/security/algorithm/test/algorithm_test.o
 .debug_info    0x00000000      0x2c3 ./src/security/algorithm/test/algorithm_test.o
 .debug_abbrev  0x00000000      0x13e ./src/security/algorithm/test/algorithm_test.o
 .debug_loc     0x00000000      0x313 ./src/security/algorithm/test/algorithm_test.o
 .debug_aranges
                0x00000000       0x28 ./src/security/algorithm/test/algorithm_test.o
 .debug_ranges  0x00000000       0x18 ./src/security/algorithm/test/algorithm_test.o
 .debug_line    0x00000000      0x39f ./src/security/algorithm/test/algorithm_test.o
 .debug_str     0x00000000      0x180 ./src/security/algorithm/test/algorithm_test.o
 .comment       0x00000000       0x12 ./src/security/algorithm/test/algorithm_test.o
 .text          0x00000000        0x0 ./src/moddrv/power/drv_power.o
 .data          0x00000000        0x0 ./src/moddrv/power/drv_power.o
 .text.drv_power_check_power_key
                0x00000000       0x40 ./src/moddrv/power/drv_power.o
 .text.drv_power_batvol
                0x00000000        0xc ./src/moddrv/power/drv_power.o
 .text.drv_power_expwr
                0x00000000        0xc ./src/moddrv/power/drv_power.o
 .text          0x00000000        0x0 ./src/moddrv/magcard/drv_magcard.o
 .data          0x00000000        0x0 ./src/moddrv/magcard/drv_magcard.o
 .text          0x00000000        0x0 ./src/moddrv/magcard/mcc_adc.o
 .data          0x00000000        0x0 ./src/moddrv/magcard/mcc_adc.o
 .text.mcc_adc_track_output
                0x00000000       0x24 ./src/moddrv/magcard/mcc_adc.o
 .text          0x00000000        0x0 ./src/moddrv/lcd/drv_lcd.o
 .data          0x00000000        0x0 ./src/moddrv/lcd/drv_lcd.o
 .text          0x00000000        0x0 ./src/moddrv/lcd/drv_lcd_font_data.o
 .bss           0x00000000        0x0 ./src/moddrv/lcd/drv_lcd_font_data.o
 .text          0x00000000        0x0 ./src/moddrv/keyboard/drv_key.o
 .data          0x00000000        0x0 ./src/moddrv/keyboard/drv_key.o
 .text.test_power
                0x00000000       0x18 ./src/moddrv/keyboard/drv_key.o
 .text          0x00000000        0x0 ./src/moddrv/beep/drv_beep.o
 .text.pwm0Init
                0x00000000        0x2 ./src/moddrv/beep/drv_beep.o
 .text.pwm0Enable
                0x00000000       0x14 ./src/moddrv/beep/drv_beep.o
 .text.dev_slice_del_task
                0x00000000       0x40 ./src/moddrv/beep/drv_beep.o
 .text.dev_slice_get_task_cnt
                0x00000000       0x30 ./src/moddrv/beep/drv_beep.o
 .text          0x00000000        0x0 ./src/moddev/power/dev_power.o
 .text          0x00000000        0x0 ./src/moddev/magcard/ddi_magcard.o
 .data          0x00000000        0x0 ./src/moddev/magcard/ddi_magcard.o
 .bss           0x00000000        0x0 ./src/moddev/magcard/ddi_magcard.o
 .text          0x00000000        0x0 ./src/moddev/magcard/dev_magcard.o
 .bss           0x00000000        0x0 ./src/moddev/magcard/dev_magcard.o
 .text.dev_maghead_status
                0x00000000        0xc ./src/moddev/magcard/dev_magcard.o
 .text          0x00000000        0x0 ./src/moddev/led/ddi_led.o
 .bss           0x00000000        0x0 ./src/moddev/led/ddi_led.o
 .text          0x00000000        0x0 ./src/moddev/lcd/dev_lcd.o
 .text.gt       0x00000000      0x150 ./src/moddev/lcd/dev_lcd.o
 .text.dev_lcd_is_open
                0x00000000       0x10 ./src/moddev/lcd/dev_lcd.o
 .text.ddi_lcd_show_text_multi_line
                0x00000000       0x90 ./src/moddev/lcd/dev_lcd.o
 .text.set_font
                0x00000000       0x40 ./src/moddev/lcd/dev_lcd.o
 .text.disp_font
                0x00000000       0x6c ./src/moddev/lcd/dev_lcd.o
 .text          0x00000000        0x0 ./src/moddev/keyboard/dev_key.o
 .text.dev_pwr_key_scan
                0x00000000       0x10 ./src/moddev/keyboard/dev_key.o
 .text          0x00000000        0x0 ./src/moddev/bt_update/bt_update.o
 .data          0x00000000        0x0 ./src/moddev/bt_update/bt_update.o
 .text          0x00000000        0x0 ./src/moddev/bt_update/crc16.o
 .data          0x00000000        0x0 ./src/moddev/bt_update/crc16.o
 .bss           0x00000000        0x0 ./src/moddev/bt_update/crc16.o
 .text          0x00000000        0x0 ./src/moddev/bt_update/mpos_protocol.o
 .data          0x00000000        0x0 ./src/moddev/bt_update/mpos_protocol.o
 .text.change_to_bcd_short
                0x00000000       0x64 ./src/moddev/bt_update/mpos_protocol.o
 .text.change_to_bcd_byte
                0x00000000       0x22 ./src/moddev/bt_update/mpos_protocol.o
 .text.ascii_2_bcd
                0x00000000       0xa4 ./src/moddev/bt_update/mpos_protocol.o
 .text          0x00000000        0x0 ./src/moddev/beep/dev_beep.o
 .data          0x00000000        0x0 ./src/moddev/beep/dev_beep.o
 .bss           0x00000000        0x0 ./src/moddev/beep/dev_beep.o
 .text          0x00000000        0x0 ./src/main/main.o
 .data          0x00000000        0x0 ./src/main/main.o
 .text          0x00000000        0x0 ./src/main/test.o
 .data          0x00000000        0x4 ./src/main/test.o
 .bss           0x00000000       0x19 ./src/main/test.o
 .text.Get_Esc_Enter_key
                0x00000000       0x20 ./src/main/test.o
 .rodata        0x00000000      0x190 ./src/main/test.o
 .text.number_to_string
                0x00000000       0x4c ./src/main/test.o
 .text.TestLiBattery
                0x00000000      0x260 ./src/main/test.o
 .text.DivPageDisplay
                0x00000000      0x34c ./src/main/test.o
 .text.display_mag_data
                0x00000000      0x208 ./src/main/test.o
 .text.TestMagBrushCard
                0x00000000      0x210 ./src/main/test.o
 .text.cl_buf_alloc
                0x00000000       0x48 ./src/main/test.o
 .text.cl_buf_free
                0x00000000       0x28 ./src/main/test.o
 .text.emv_cl_l1_test
                0x00000000      0x230 ./src/main/test.o
 .text.emv_cl_l1_test_init
                0x00000000       0x1c ./src/main/test.o
 .text.emv_cl_l1_test_ctl
                0x00000000       0x10 ./src/main/test.o
 .text.emv_cl_lb_ctl
                0x00000000       0x48 ./src/main/test.o
 .text.cl_fvt   0x00000000       0x54 ./src/main/test.o
 .text.DispStr  0x00000000       0xac ./src/main/test.o
 .text.testSim  0x00000000      0x1ec ./src/main/test.o
 .text.TestICCARD
                0x00000000       0x30 ./src/main/test.o
 .text.test_uart
                0x00000000       0x34 ./src/main/test.o
 .text.test_delay
                0x00000000       0x38 ./src/main/test.o
 .text.test_malloc
                0x00000000       0xb8 ./src/main/test.o
 .text.test_fs  0x00000000      0x18c ./src/main/test.o
 .text.test_mag
                0x00000000       0xd4 ./src/main/test.o
 .text.test_beep
                0x00000000       0x30 ./src/main/test.o
 .text.sn_write_test
                0x00000000      0x214 ./src/main/test.o
 .text.read_sn_area
                0x00000000       0xac ./src/main/test.o
 .text.test_alarm
                0x00000000      0x108 ./src/main/test.o
 .text.test_flash_file_test
                0x00000000        0x2 ./src/main/test.o
 .text.vfs_test
                0x00000000      0x130 ./src/main/test.o
 .text.flash_test
                0x00000000      0x158 ./src/main/test.o
 .text.checklen
                0x00000000       0x1c ./src/main/test.o
 .text.balance_file_test
                0x00000000      0x33c ./src/main/test.o
 .text.test_display_picture
                0x00000000      0x11c ./src/main/test.o
 .text.testflash
                0x00000000       0xb8 ./src/main/test.o
 .text.test     0x00000000       0x18 ./src/main/test.o
 .text          0x00000000        0x0 ./src/fun/time/fun_time.o
 .data          0x00000000        0x0 ./src/fun/time/fun_time.o
 .bss           0x00000000        0x0 ./src/fun/time/fun_time.o
 .text.fun_delay_ns
                0x00000000       0x14 ./src/fun/time/fun_time.o
 .text.fun_delay_us
                0x00000000       0x14 ./src/fun/time/fun_time.o
 .text.fun_delay_ms
                0x00000000       0x14 ./src/fun/time/fun_time.o
 .text.fun_time_task
                0x00000000        0x2 ./src/fun/time/fun_time.o
 .debug_frame   0x00000000       0x6c ./src/fun/time/fun_time.o
 .debug_info    0x00000000      0x155 ./src/fun/time/fun_time.o
 .debug_abbrev  0x00000000       0x8c ./src/fun/time/fun_time.o
 .debug_loc     0x00000000       0xbd ./src/fun/time/fun_time.o
 .debug_aranges
                0x00000000       0x38 ./src/fun/time/fun_time.o
 .debug_ranges  0x00000000       0x28 ./src/fun/time/fun_time.o
 .debug_line    0x00000000       0xf3 ./src/fun/time/fun_time.o
 .debug_str     0x00000000      0x12c ./src/fun/time/fun_time.o
 .comment       0x00000000       0x12 ./src/fun/time/fun_time.o
 .text          0x00000000        0x0 ./src/fun/dev_maths.o
 .bss           0x00000000        0x0 ./src/fun/dev_maths.o
 .text.DevU32ToBcd
                0x00000000       0x52 ./src/fun/dev_maths.o
 .text.DevAscToBcd
                0x00000000       0xb8 ./src/fun/dev_maths.o
 .text.DevByteCopy
                0x00000000       0x1e ./src/fun/dev_maths.o
 .text.DevInt2Bcd
                0x00000000       0x58 ./src/fun/dev_maths.o
 .text.DevBcd2Int
                0x00000000       0x4e ./src/fun/dev_maths.o
 .text.DevBcdSub
                0x00000000       0x74 ./src/fun/dev_maths.o
 .text.DevBcdAdd
                0x00000000       0x5a ./src/fun/dev_maths.o
 .text.dev_buf_compare
                0x00000000       0x2a ./src/fun/dev_maths.o
 .text.BcdToU16
                0x00000000       0x4e ./src/fun/dev_maths.o
 .text.XOR      0x00000000       0x1e ./src/fun/dev_maths.o
 .text.str_cmp  0x00000000       0x1e ./src/fun/dev_maths.o
 .text.u8_xor   0x00000000       0x1a ./src/fun/dev_maths.o
 .text.u8_to_bcd
                0x00000000       0x54 ./src/fun/dev_maths.o
 .text.bcd_to_u8
                0x00000000       0x3e ./src/fun/dev_maths.o
 .text.u16_to_bcd
                0x00000000       0x54 ./src/fun/dev_maths.o
 .text.bcd_to_u16
                0x00000000       0x40 ./src/fun/dev_maths.o
 .text.hex_to_u16
                0x00000000       0x22 ./src/fun/dev_maths.o
 .text.u16_to_hex
                0x00000000       0x16 ./src/fun/dev_maths.o
 .text.hex_to_u32
                0x00000000       0x1e ./src/fun/dev_maths.o
 .text.u32_to_hex
                0x00000000       0x14 ./src/fun/dev_maths.o
 .text.u32_to_bcd
                0x00000000       0x4e ./src/fun/dev_maths.o
 .text.bcd_to_u32
                0x00000000       0x42 ./src/fun/dev_maths.o
 .text.bcd_to_asc
                0x00000000       0x30 ./src/fun/dev_maths.o
 .text.asc_to_bcd
                0x00000000       0xb0 ./src/fun/dev_maths.o
 .text.bcd_add  0x00000000       0x58 ./src/fun/dev_maths.o
 .text.bcd_sub  0x00000000       0x72 ./src/fun/dev_maths.o
 .text.double_to_one
                0x00000000       0x80 ./src/fun/dev_maths.o
 .text.calc_bcc
                0x00000000       0x1a ./src/fun/dev_maths.o
 .text.truncate_char
                0x00000000       0x4c ./src/fun/dev_maths.o
 .text.str_pos  0x00000000       0x1c ./src/fun/dev_maths.o
 .text.str_trim_left
                0x00000000       0x40 ./src/fun/dev_maths.o
 .text.str_trim_right
                0x00000000       0x30 ./src/fun/dev_maths.o
 .text.str_trim
                0x00000000       0x1c ./src/fun/dev_maths.o
 .text.calc_lrc
                0x00000000       0x26 ./src/fun/dev_maths.o
 .text          0x00000000        0x0 ./src/fs/xgdfs/SysFile.o
 .data          0x00000000        0x4 ./src/fs/xgdfs/SysFile.o
 .bss           0x00000000      0x432 ./src/fs/xgdfs/SysFile.o
 .text.CountCheckSum
                0x00000000       0x1c ./src/fs/xgdfs/SysFile.o
 .text.SysFile_Block_SetStatus
                0x00000000       0x4c ./src/fs/xgdfs/SysFile.o
 .rodata        0x00000000        0xf ./src/fs/xgdfs/SysFile.o
 .text.SysFile_WdateTime_Add
                0x00000000       0x78 ./src/fs/xgdfs/SysFile.o
 .text.SysFile_Block_GetStatus
                0x00000000       0x1c ./src/fs/xgdfs/SysFile.o
 .text.SysFile_Get_BN
                0x00000000       0x1c ./src/fs/xgdfs/SysFile.o
 .text.SysFile_Get_BBN
                0x00000000       0x1c ./src/fs/xgdfs/SysFile.o
 .text.EraseFileSysBlock
                0x00000000       0x3c ./src/fs/xgdfs/SysFile.o
 .text.WriteFileSysBlock
                0x00000000       0x84 ./src/fs/xgdfs/SysFile.o
 .text.LookupUseBlock
                0x00000000       0x60 ./src/fs/xgdfs/SysFile.o
 .text.SysFileDelSysBlock
                0x00000000       0x5c ./src/fs/xgdfs/SysFile.o
 .text.ReadFileSysBlock
                0x00000000       0x4c ./src/fs/xgdfs/SysFile.o
 .text.BcdSub.constprop.4
                0x00000000       0x6c ./src/fs/xgdfs/SysFile.o
 .text.CCU16    0x00000000        0xe ./src/fs/xgdfs/SysFile.o
 .text.U16CC    0x00000000        0xc ./src/fs/xgdfs/SysFile.o
 .text.FS_CCU32
                0x00000000       0x1a ./src/fs/xgdfs/SysFile.o
 .text.U32CC    0x00000000       0x16 ./src/fs/xgdfs/SysFile.o
 .text.AmendFileNameFnum
                0x00000000       0x5c ./src/fs/xgdfs/SysFile.o
 .text.SysFile_File_GetLen
                0x00000000       0x2c ./src/fs/xgdfs/SysFile.o
 .text.SysFile_File_GetFlag
                0x00000000       0x20 ./src/fs/xgdfs/SysFile.o
 .text.FileBlackLish
                0x00000000       0x94 ./src/fs/xgdfs/SysFile.o
 .text.SysFile_ClearFileData
                0x00000000       0x88 ./src/fs/xgdfs/SysFile.o
 .text.AcquireFileSysParameter
                0x00000000       0xa0 ./src/fs/xgdfs/SysFile.o
 .text.SysFile_Show_detai
                0x00000000        0x2 ./src/fs/xgdfs/SysFile.o
 .text.RenewalFileSys.isra.3
                0x00000000      0x1a8 ./src/fs/xgdfs/SysFile.o
 .text.AcquireFileSysData
                0x00000000      0x2a4 ./src/fs/xgdfs/SysFile.o
 .text.FoundFileSys
                0x00000000       0xa4 ./src/fs/xgdfs/SysFile.o
 .text.OpenFile
                0x00000000       0x58 ./src/fs/xgdfs/SysFile.o
 .text.CloseFile
                0x00000000       0x20 ./src/fs/xgdfs/SysFile.o
 .text.FoundFile
                0x00000000       0xe0 ./src/fs/xgdfs/SysFile.o
 .text.ClearFileData
                0x00000000       0x38 ./src/fs/xgdfs/SysFile.o
 .text.DeleteFileNum
                0x00000000       0x48 ./src/fs/xgdfs/SysFile.o
 .text.WriteFileData
                0x00000000      0x2f0 ./src/fs/xgdfs/SysFile.o
 .text.ReadFileData
                0x00000000      0x16c ./src/fs/xgdfs/SysFile.o
 .text.xgdfs_verify
                0x00000000       0xa4 ./src/fs/xgdfs/SysFile.o
 .text.XgdFs_Mount
                0x00000000       0x68 ./src/fs/xgdfs/SysFile.o
 .text.XgdFs_Open_Dir
                0x00000000       0x24 ./src/fs/xgdfs/SysFile.o
 .text.XgdFs_Read_Dir
                0x00000000       0x64 ./src/fs/xgdfs/SysFile.o
 .debug_frame   0x00000000      0x364 ./src/fs/xgdfs/SysFile.o
 .debug_info    0x00000000     0x1f92 ./src/fs/xgdfs/SysFile.o
 .debug_abbrev  0x00000000      0x4ab ./src/fs/xgdfs/SysFile.o
 .debug_loc     0x00000000     0x2614 ./src/fs/xgdfs/SysFile.o
 .debug_aranges
                0x00000000      0x140 ./src/fs/xgdfs/SysFile.o
 .debug_ranges  0x00000000      0x250 ./src/fs/xgdfs/SysFile.o
 .debug_line    0x00000000     0x1866 ./src/fs/xgdfs/SysFile.o
 .debug_str     0x00000000      0x765 ./src/fs/xgdfs/SysFile.o
 .comment       0x00000000       0x12 ./src/fs/xgdfs/SysFile.o
 .text          0x00000000        0x0 ./src/fs/xgdfs/fs_test.o
 .data          0x00000000        0x0 ./src/fs/xgdfs/fs_test.o
 .bss           0x00000000        0x0 ./src/fs/xgdfs/fs_test.o
 .rodata.str1.4
                0x00000000      0x11d ./src/fs/xgdfs/fs_test.o
 .text.show_fs  0x00000000      0x21c ./src/fs/xgdfs/fs_test.o
 .text.vfs_format
                0x00000000        0x2 ./src/fs/xgdfs/fs_test.o
 .text.format_fs
                0x00000000      0x118 ./src/fs/xgdfs/fs_test.o
 .text.browse_VFS
                0x00000000      0x11c ./src/fs/xgdfs/fs_test.o
 .debug_frame   0x00000000       0x80 ./src/fs/xgdfs/fs_test.o
 .debug_info    0x00000000      0x362 ./src/fs/xgdfs/fs_test.o
 .debug_abbrev  0x00000000      0x185 ./src/fs/xgdfs/fs_test.o
 .debug_loc     0x00000000      0x38b ./src/fs/xgdfs/fs_test.o
 .debug_aranges
                0x00000000       0x38 ./src/fs/xgdfs/fs_test.o
 .debug_ranges  0x00000000       0x28 ./src/fs/xgdfs/fs_test.o
 .debug_line    0x00000000      0x4fb ./src/fs/xgdfs/fs_test.o
 .debug_str     0x00000000      0x1be ./src/fs/xgdfs/fs_test.o
 .comment       0x00000000       0x12 ./src/fs/xgdfs/fs_test.o
 .text          0x00000000        0x0 ./src/fs/fs_vs.o
 .data          0x00000000        0x0 ./src/fs/fs_vs.o
 .text.vfs_find_dir
                0x00000000       0x34 ./src/fs/fs_vs.o
 .text.vfs_read_dir_xgd
                0x00000000       0x3c ./src/fs/fs_vs.o
 .text.dev_flash_erase_sector
                0x00000000       0x1c ./src/fs/fs_vs.o
 .text.vfs_get_dir_name
                0x00000000       0xc0 ./src/fs/fs_vs.o
 .text.vfs_open
                0x00000000      0x1cc ./src/fs/fs_vs.o
 .text.vfs_close
                0x00000000       0x38 ./src/fs/fs_vs.o
 .text.vfs_flush
                0x00000000       0x34 ./src/fs/fs_vs.o
 .text.vfs_read
                0x00000000       0x60 ./src/fs/fs_vs.o
 .text.vfs_write
                0x00000000       0x4c ./src/fs/fs_vs.o
 .text.vfs_seek
                0x00000000       0x68 ./src/fs/fs_vs.o
 .text.vfs_tell
                0x00000000       0x10 ./src/fs/fs_vs.o
 .text.vfs_remove
                0x00000000       0x50 ./src/fs/fs_vs.o
 .text.vfs_rename
                0x00000000       0xa8 ./src/fs/fs_vs.o
 .text.vfs_read_dir_vfs
                0x00000000       0x40 ./src/fs/fs_vs.o
 .text.vfs_root_mount
                0x00000000       0x20 ./src/fs/fs_vs.o
 .text.vfs_realfs_init
                0x00000000       0x94 ./src/fs/fs_vs.o
 .text.vfs_opendir
                0x00000000       0x18 ./src/fs/fs_vs.o
 .text.vfs_readdir
                0x00000000       0x20 ./src/fs/fs_vs.o
 .text          0x00000000        0x0 ./src/drv/adc_dma.o
 .data          0x00000000        0x0 ./src/drv/adc_dma.o
 .text          0x00000000        0x0 ./src/drv/adc_drv.o
 .data          0x00000000        0x0 ./src/drv/adc_drv.o
 .bss           0x00000000        0x0 ./src/drv/adc_drv.o
 .text.ADC_Init
                0x00000000       0x14 ./src/drv/adc_drv.o
 .text          0x00000000        0x0 ./src/drv/alg_drv.o
 .data          0x00000000        0x0 ./src/drv/alg_drv.o
 .text.wordswap.constprop.5
                0x00000000       0x38 ./src/drv/alg_drv.o
 .text.AES_EnDecrypt_2
                0x00000000       0xe8 ./src/drv/alg_drv.o
 .text.SMS4_EnDecrypt_2
                0x00000000       0xcc ./src/drv/alg_drv.o
 .text.SM2Init  0x00000000      0x120 ./src/drv/alg_drv.o
 .text.SM2GenerateKeyPair_2
                0x00000000       0x88 ./src/drv/alg_drv.o
 .text.SM2Encrypt_2
                0x00000000       0xa0 ./src/drv/alg_drv.o
 .rodata.str1.4
                0x00000000        0x8 ./src/drv/alg_drv.o
 .text.SM2Decrypt_2
                0x00000000       0xb4 ./src/drv/alg_drv.o
 .text.SM2Signature_2
                0x00000000       0xe8 ./src/drv/alg_drv.o
 .text.SM2Verification_2
                0x00000000       0xf0 ./src/drv/alg_drv.o
 .text.SM2GenerateE_2
                0x00000000      0x104 ./src/drv/alg_drv.o
 .text.SM2KeyExchange_2
                0x00000000      0x2e8 ./src/drv/alg_drv.o
 .text.sign_2   0x00000000       0xa0 ./src/drv/alg_drv.o
 .text.rsa_keypair_gen
                0x00000000      0x194 ./src/drv/alg_drv.o
 .text.RsaPrivKey_2
                0x00000000      0x118 ./src/drv/alg_drv.o
 .text          0x00000000        0x0 ./src/drv/cache_drv.o
 .data          0x00000000        0x0 ./src/drv/cache_drv.o
 .bss           0x00000000        0x0 ./src/drv/cache_drv.o
 .text          0x00000000        0x0 ./src/drv/ccm_drv.o
 .data          0x00000000        0x0 ./src/drv/ccm_drv.o
 .bss           0x00000000        0x0 ./src/drv/ccm_drv.o
 .text.read_chip_cid
                0x00000000        0xc ./src/drv/ccm_drv.o
 .text.config_osc_bias_trim_value
                0x00000000       0x1c ./src/drv/ccm_drv.o
 .text.CCM_Gpio_Diable
                0x00000000       0x20 ./src/drv/ccm_drv.o
 .text          0x00000000        0x0 ./src/drv/cpm_drv.o
 .bss           0x00000000        0x0 ./src/drv/cpm_drv.o
 .text.CPM_PowerOff_2
                0x00000000       0x3c ./src/drv/cpm_drv.o
 .text.ModuleClk_On
                0x00000000       0x44 ./src/drv/cpm_drv.o
 .text.ModuleClk_Off
                0x00000000       0x44 ./src/drv/cpm_drv.o
 .text.get_usb_det_sta
                0x00000000       0x18 ./src/drv/cpm_drv.o
 .text.PMU_VD_Set
                0x00000000       0x80 ./src/drv/cpm_drv.o
 .text.PMU_VD_Clear
                0x00000000       0x10 ./src/drv/cpm_drv.o
 .text.WAKEUP_Init
                0x00000000       0x24 ./src/drv/cpm_drv.o
 .text.CardVCC_Trim
                0x00000000       0x48 ./src/drv/cpm_drv.o
 .text.LVDT_2V7_Config
                0x00000000       0x68 ./src/drv/cpm_drv.o
 .text          0x00000000        0x0 ./src/drv/crc_drv.o
 .data          0x00000000        0x0 ./src/drv/crc_drv.o
 .bss           0x00000000        0x0 ./src/drv/crc_drv.o
 .debug_info    0x00000000       0x73 ./src/drv/crc_drv.o
 .debug_abbrev  0x00000000       0x2a ./src/drv/crc_drv.o
 .debug_line    0x00000000       0x24 ./src/drv/crc_drv.o
 .debug_str     0x00000000       0xb7 ./src/drv/crc_drv.o
 .comment       0x00000000       0x12 ./src/drv/crc_drv.o
 .text          0x00000000        0x0 ./src/drv/dmac_drv.o
 .data          0x00000000        0x0 ./src/drv/dmac_drv.o
 .rodata.str1.4
                0x00000000       0x16 ./src/drv/dmac_drv.o
 .text.dmac_isr
                0x00000000       0x6c ./src/drv/dmac_drv.o
 .text.dma_m2mtran
                0x00000000       0xa0 ./src/drv/dmac_drv.o
 .text.dma_spitran
                0x00000000       0xa4 ./src/drv/dmac_drv.o
 .text          0x00000000        0x0 ./src/drv/edma_drv.o
 .data          0x00000000        0x0 ./src/drv/edma_drv.o
 .text.EDMA_CHx
                0x00000000       0xf8 ./src/drv/edma_drv.o
 .text.EDMA_deinit_sleep
                0x00000000       0x20 ./src/drv/edma_drv.o
 .text.EDMA_init_sleep
                0x00000000       0x20 ./src/drv/edma_drv.o
 .text.SPI_MasterSendDataByDMA_start
                0x00000000       0x6c ./src/drv/edma_drv.o
 .text.SPI_MasterSendDataByDMA_finish
                0x00000000       0x10 ./src/drv/edma_drv.o
 .text.SPI_MasterSendDataByDMA_send
                0x00000000       0x54 ./src/drv/edma_drv.o
 .text          0x00000000        0x0 ./src/drv/eflash_drv.o
 .data          0x00000000        0x0 ./src/drv/eflash_drv.o
 .bss           0x00000000        0x0 ./src/drv/eflash_drv.o
 .text          0x00000000        0x0 ./src/drv/eport_drv.o
 .data          0x00000000        0x0 ./src/drv/eport_drv.o
 .bss           0x00000000        0x0 ./src/drv/eport_drv.o
 .text.EPORT_PullupConfig
                0x00000000       0x78 ./src/drv/eport_drv.o
 .text.EPORT_Init
                0x00000000        0x2 ./src/drv/eport_drv.o
 .text          0x00000000        0x0 ./src/drv/ept_drv.o
 .data          0x00000000        0x0 ./src/drv/ept_drv.o
 .bss           0x00000000        0x0 ./src/drv/ept_drv.o
 .debug_info    0x00000000       0x73 ./src/drv/ept_drv.o
 .debug_abbrev  0x00000000       0x2a ./src/drv/ept_drv.o
 .debug_line    0x00000000       0x24 ./src/drv/ept_drv.o
 .debug_str     0x00000000       0xb7 ./src/drv/ept_drv.o
 .comment       0x00000000       0x12 ./src/drv/ept_drv.o
 .text          0x00000000        0x0 ./src/drv/i2c_drv.o
 .text.i2c_config
                0x00000000       0x74 ./src/drv/i2c_drv.o
 .text.i2c_master_init
                0x00000000       0x20 ./src/drv/i2c_drv.o
 .text.i2c_slave_init
                0x00000000       0x18 ./src/drv/i2c_drv.o
 .text.i2c_gpio_init
                0x00000000       0x2c ./src/drv/i2c_drv.o
 .text.I2C_master_send
                0x00000000       0x20 ./src/drv/i2c_drv.o
 .text.I2C_master_rec
                0x00000000       0x3c ./src/drv/i2c_drv.o
 .text.I2c_writedata
                0x00000000      0x100 ./src/drv/i2c_drv.o
 .text.I2c_readdata
                0x00000000      0x144 ./src/drv/i2c_drv.o
 .text.i2c_slave_trans
                0x00000000       0x3c ./src/drv/i2c_drv.o
 .text          0x00000000        0x0 ./src/drv/pit32_drv.o
 .data          0x00000000        0x0 ./src/drv/pit32_drv.o
 .bss           0x00000000        0x0 ./src/drv/pit32_drv.o
 .text.PIT32_Start
                0x00000000       0x10 ./src/drv/pit32_drv.o
 .text.PIT32_Stop
                0x00000000       0x14 ./src/drv/pit32_drv.o
 .text.PIT32_Cmd
                0x00000000       0x3c ./src/drv/pit32_drv.o
 .text          0x00000000        0x0 ./src/drv/pit_drv.o
 .data          0x00000000        0x0 ./src/drv/pit_drv.o
 .bss           0x00000000        0x0 ./src/drv/pit_drv.o
 .text.PIT_Start
                0x00000000       0x58 ./src/drv/pit_drv.o
 .text.PIT_Stop
                0x00000000       0x14 ./src/drv/pit_drv.o
 .text.PIT_Cmd  0x00000000       0x3c ./src/drv/pit_drv.o
 .text          0x00000000        0x0 ./src/drv/pwm_drv.o
 .data          0x00000000        0x0 ./src/drv/pwm_drv.o
 .bss           0x00000000        0x0 ./src/drv/pwm_drv.o
 .text.PWM_InputInit
                0x00000000      0x13c ./src/drv/pwm_drv.o
 .text.PWM_Start
                0x00000000       0x40 ./src/drv/pwm_drv.o
 .text          0x00000000        0x0 ./src/drv/reset_drv.o
 .data          0x00000000        0x0 ./src/drv/reset_drv.o
 .bss           0x00000000        0x0 ./src/drv/reset_drv.o
 .text.get_reset_status
                0x00000000        0xc ./src/drv/reset_drv.o
 .text          0x00000000        0x0 ./src/drv/rtc_drv.o
 .data          0x00000000        0x0 ./src/drv/rtc_drv.o
 .text          0x00000000        0x0 ./src/drv/spi_drv.o
 .data          0x00000000        0x0 ./src/drv/spi_drv.o
 .text.SPI_StructInit
                0x00000000       0x18 ./src/drv/spi_drv.o
 .text.SPI_MasterFixedSendData
                0x00000000       0x78 ./src/drv/spi_drv.o
 .text.SPI_MasterReceiveData
                0x00000000       0x80 ./src/drv/spi_drv.o
 .text.SPI_SlaveSendData
                0x00000000       0x70 ./src/drv/spi_drv.o
 .text.SPI_SlaveReceiveData
                0x00000000       0x60 ./src/drv/spi_drv.o
 .text.SPI_Cmd  0x00000000       0x68 ./src/drv/spi_drv.o
 .text          0x00000000        0x0 ./src/drv/tc_drv.o
 .data          0x00000000        0x0 ./src/drv/tc_drv.o
 .bss           0x00000000        0x0 ./src/drv/tc_drv.o
 .text.TC_Init  0x00000000       0x4c ./src/drv/tc_drv.o
 .text.TC_deInit
                0x00000000       0x20 ./src/drv/tc_drv.o
 .text.TC_FeedWatchDog
                0x00000000       0x18 ./src/drv/tc_drv.o
 .text          0x00000000        0x0 ./src/drv/uart_drv.o
 .data          0x00000000        0x0 ./src/drv/uart_drv.o
 .bss           0x00000000        0x0 ./src/drv/uart_drv.o
 .text          0x00000000        0x0 ./src/drv/usb_drv.o
 .data          0x00000000        0x0 ./src/drv/usb_drv.o
 .bss           0x00000000        0x0 ./src/drv/usb_drv.o
 .debug_info    0x00000000       0x73 ./src/drv/usb_drv.o
 .debug_abbrev  0x00000000       0x2a ./src/drv/usb_drv.o
 .debug_line    0x00000000       0x24 ./src/drv/usb_drv.o
 .debug_str     0x00000000       0xb7 ./src/drv/usb_drv.o
 .comment       0x00000000       0x12 ./src/drv/usb_drv.o
 .text          0x00000000        0x0 ./src/drv/usi_drv.o
 .data          0x00000000        0x4 ./src/drv/usi_drv.o
 .bss           0x00000000        0x0 ./src/drv/usi_drv.o
 .text.USI_Init
                0x00000000        0x2 ./src/drv/usi_drv.o
 .text.TransmitByte
                0x00000000       0x1c ./src/drv/usi_drv.o
 .text.ReceiveByte
                0x00000000       0x14 ./src/drv/usi_drv.o
 .text.USI_DeInit
                0x00000000       0x58 ./src/drv/usi_drv.o
 .text.USIMasterInit
                0x00000000       0x8c ./src/drv/usi_drv.o
 .text.USIMasterHotInit
                0x00000000       0x24 ./src/drv/usi_drv.o
 .text.USI_OpenWTC
                0x00000000       0x28 ./src/drv/usi_drv.o
 .text.Card2_Power_On
                0x00000000       0x40 ./src/drv/usi_drv.o
 .text.Card2_Power_Off
                0x00000000       0x24 ./src/drv/usi_drv.o
 .text.Card2_Power_Switch
                0x00000000       0x30 ./src/drv/usi_drv.o
 .text.Card3_Power_Off
                0x00000000       0x24 ./src/drv/usi_drv.o
 .text.Card3_Power_On
                0x00000000       0x40 ./src/drv/usi_drv.o
 .text.Card3_Power_Switch
                0x00000000       0x30 ./src/drv/usi_drv.o
 .text          0x00000000        0x0 ./src/drv/wdt_drv.o
 .data          0x00000000        0x0 ./src/drv/wdt_drv.o
 .bss           0x00000000        0x0 ./src/drv/wdt_drv.o
 .text          0x00000000        0x0 ./src/common/alloc.o
 .text.malloc_used_check
                0x00000000        0x2 ./src/common/alloc.o
 .text.k_mallocapp
                0x00000000       0x44 ./src/common/alloc.o
 .text.k_freeapp
                0x00000000       0x14 ./src/common/alloc.o
 .text          0x00000000        0x0 ./src/common/debug.o
 .data          0x00000000        0x0 ./src/common/debug.o
 .bss           0x00000000        0x0 ./src/common/debug.o
 .text.DemoPrintfBuf
                0x00000000       0x40 ./src/common/debug.o
 .text.serial_getc_dev
                0x00000000       0x20 ./src/common/debug.o
 .text.re_sprintf
                0x00000000       0xe0 ./src/common/debug.o
 .text          0x00000000        0x0 ./src/common/delay.o
 .data          0x00000000        0x0 ./src/common/delay.o
 .bss           0x00000000        0x0 ./src/common/delay.o
 .text          0x00000000        0x0 ./src/common/download.o
 .data          0x00000000        0x0 ./src/common/download.o
 .text          0x00000000        0x0 ./src/common/misc.o
 .data          0x00000000        0x0 ./src/common/misc.o
 .text.GetMcuId
                0x00000000       0x24 ./src/common/misc.o
 .text          0x00000000        0x0 ./src/common/syscfg.o
 .data          0x00000000        0x0 ./src/common/syscfg.o
 .bss           0x00000000        0x0 ./src/common/syscfg.o
 .text          0x00000000        0x0 ./src/common/update.o
 .data          0x00000000        0x0 ./src/common/update.o
 .bss           0x00000000        0x0 ./src/common/update.o
 .text.write_update_response
                0x00000000       0x34 ./src/common/update.o
 .text          0x00000000        0x0 ./src/ccore/AsmToC.o
 .data          0x00000000        0x0 ./src/ccore/AsmToC.o
 .bss           0x00000000        0x0 ./src/ccore/AsmToC.o
 .text.InsDSB   0x00000000        0x2 ./src/ccore/AsmToC.o
 .text.WFE      0x00000000        0x2 ./src/ccore/AsmToC.o
 .text.WFI      0x00000000        0x2 ./src/ccore/AsmToC.o
 .text.irqBack  0x00000000        0x2 ./src/ccore/AsmToC.o
 .text.irqReload
                0x00000000        0x2 ./src/ccore/AsmToC.o
 .text          0x00000000        0x0 ./src/ccore/Memory_API.o
 .data          0x00000000        0x0 ./src/ccore/Memory_API.o
 .bss           0x00000000        0x0 ./src/ccore/Memory_API.o
 .text.mem_cpy  0x00000000        0x2 ./src/ccore/Memory_API.o
 .text.DMAMemcopyTransWW
                0x00000000        0x2 ./src/ccore/Memory_API.o
 .data          0x00000000        0x0 ./src/ccore/crt0.o
 .bss           0x00000000        0x0 ./src/ccore/crt0.o
 .text          0x00000000        0x0 ./src/ccore/interrupt.o
 .data          0x00000000        0x0 ./src/ccore/interrupt.o
 .bss           0x00000000        0x0 ./src/ccore/interrupt.o
 .data          0x00000000        0x0 ./src/ccore/interrupt_support.o
 .bss           0x00000000        0x0 ./src/ccore/interrupt_support.o
 .text          0x00000000        0x0 ./src/ccore/vector_rce.o
 .data          0x00000000        0x0 ./src/ccore/vector_rce.o
 .bss           0x00000000        0x0 ./src/ccore/vector_rce.o
 .text          0x00000000        0x0 ./src/ccore/vector_table.o
 .data          0x00000000        0x0 ./src/ccore/vector_table.o
 .bss           0x00000000        0x0 ./src/ccore/vector_table.o
 .text          0x00000000        0x0 ./src/api/dev_api.o
 .data          0x00000000        0x0 ./src/api/dev_api.o
 .bss           0x00000000        0x0 ./src/api/dev_api.o
 .text.set_deviceinfo_leshua
                0x00000000        0x4 ./src/api/dev_api.o
 .text.get_deviceinfo_leshua
                0x00000000        0x4 ./src/api/dev_api.o
 .data          0x00000000        0x0 D:\software_xqy\CCore_IDE/tool-chain/ccore-elf/lib/gcc/mcore-elf/4.6.0/c0_div\libgcc.a(_addsub_df.o)
 .bss           0x00000000        0x0 D:\software_xqy\CCore_IDE/tool-chain/ccore-elf/lib/gcc/mcore-elf/4.6.0/c0_div\libgcc.a(_addsub_df.o)
 .data          0x00000000        0x0 D:\software_xqy\CCore_IDE/tool-chain/ccore-elf/lib/gcc/mcore-elf/4.6.0/c0_div\libgcc.a(_mul_df.o)
 .bss           0x00000000        0x0 D:\software_xqy\CCore_IDE/tool-chain/ccore-elf/lib/gcc/mcore-elf/4.6.0/c0_div\libgcc.a(_mul_df.o)
 .data          0x00000000        0x0 D:\software_xqy\CCore_IDE/tool-chain/ccore-elf/lib/gcc/mcore-elf/4.6.0/c0_div\libgcc.a(_div_df.o)
 .bss           0x00000000        0x0 D:\software_xqy\CCore_IDE/tool-chain/ccore-elf/lib/gcc/mcore-elf/4.6.0/c0_div\libgcc.a(_div_df.o)
 .data          0x00000000        0x0 D:\software_xqy\CCore_IDE/tool-chain/ccore-elf/lib/gcc/mcore-elf/4.6.0/c0_div\libgcc.a(_eq_df.o)
 .bss           0x00000000        0x0 D:\software_xqy\CCore_IDE/tool-chain/ccore-elf/lib/gcc/mcore-elf/4.6.0/c0_div\libgcc.a(_eq_df.o)
 .data          0x00000000        0x0 D:\software_xqy\CCore_IDE/tool-chain/ccore-elf/lib/gcc/mcore-elf/4.6.0/c0_div\libgcc.a(_ne_df.o)
 .bss           0x00000000        0x0 D:\software_xqy\CCore_IDE/tool-chain/ccore-elf/lib/gcc/mcore-elf/4.6.0/c0_div\libgcc.a(_ne_df.o)
 .data          0x00000000        0x0 D:\software_xqy\CCore_IDE/tool-chain/ccore-elf/lib/gcc/mcore-elf/4.6.0/c0_div\libgcc.a(_gt_df.o)
 .bss           0x00000000        0x0 D:\software_xqy\CCore_IDE/tool-chain/ccore-elf/lib/gcc/mcore-elf/4.6.0/c0_div\libgcc.a(_gt_df.o)
 .data          0x00000000        0x0 D:\software_xqy\CCore_IDE/tool-chain/ccore-elf/lib/gcc/mcore-elf/4.6.0/c0_div\libgcc.a(_lt_df.o)
 .bss           0x00000000        0x0 D:\software_xqy\CCore_IDE/tool-chain/ccore-elf/lib/gcc/mcore-elf/4.6.0/c0_div\libgcc.a(_lt_df.o)
 .data          0x00000000        0x0 D:\software_xqy\CCore_IDE/tool-chain/ccore-elf/lib/gcc/mcore-elf/4.6.0/c0_div\libgcc.a(_si_to_df.o)
 .bss           0x00000000        0x0 D:\software_xqy\CCore_IDE/tool-chain/ccore-elf/lib/gcc/mcore-elf/4.6.0/c0_div\libgcc.a(_si_to_df.o)
 .data          0x00000000        0x0 D:\software_xqy\CCore_IDE/tool-chain/ccore-elf/lib/gcc/mcore-elf/4.6.0/c0_div\libgcc.a(_df_to_si.o)
 .bss           0x00000000        0x0 D:\software_xqy\CCore_IDE/tool-chain/ccore-elf/lib/gcc/mcore-elf/4.6.0/c0_div\libgcc.a(_df_to_si.o)
 .text          0x00000000        0x0 D:\software_xqy\CCore_IDE/tool-chain/ccore-elf/lib/gcc/mcore-elf/4.6.0/c0_div\libgcc.a(_thenan_df.o)
 .data          0x00000000        0x0 D:\software_xqy\CCore_IDE/tool-chain/ccore-elf/lib/gcc/mcore-elf/4.6.0/c0_div\libgcc.a(_thenan_df.o)
 .bss           0x00000000        0x0 D:\software_xqy\CCore_IDE/tool-chain/ccore-elf/lib/gcc/mcore-elf/4.6.0/c0_div\libgcc.a(_thenan_df.o)
 .data          0x00000000        0x0 D:\software_xqy\CCore_IDE/tool-chain/ccore-elf/lib/gcc/mcore-elf/4.6.0/c0_div\libgcc.a(_muldi3.o)
 .bss           0x00000000        0x0 D:\software_xqy\CCore_IDE/tool-chain/ccore-elf/lib/gcc/mcore-elf/4.6.0/c0_div\libgcc.a(_muldi3.o)
 .data          0x00000000        0x0 D:\software_xqy\CCore_IDE/tool-chain/ccore-elf/lib/gcc/mcore-elf/4.6.0/c0_div\libgcc.a(_clzsi2.o)
 .bss           0x00000000        0x0 D:\software_xqy\CCore_IDE/tool-chain/ccore-elf/lib/gcc/mcore-elf/4.6.0/c0_div\libgcc.a(_clzsi2.o)
 .data          0x00000000        0x0 D:\software_xqy\CCore_IDE/tool-chain/ccore-elf/lib/gcc/mcore-elf/4.6.0/c0_div\libgcc.a(_pack_df.o)
 .bss           0x00000000        0x0 D:\software_xqy\CCore_IDE/tool-chain/ccore-elf/lib/gcc/mcore-elf/4.6.0/c0_div\libgcc.a(_pack_df.o)
 .data          0x00000000        0x0 D:\software_xqy\CCore_IDE/tool-chain/ccore-elf/lib/gcc/mcore-elf/4.6.0/c0_div\libgcc.a(_unpack_df.o)
 .bss           0x00000000        0x0 D:\software_xqy\CCore_IDE/tool-chain/ccore-elf/lib/gcc/mcore-elf/4.6.0/c0_div\libgcc.a(_unpack_df.o)
 .data          0x00000000        0x0 D:\software_xqy\CCore_IDE/tool-chain/ccore-elf/lib/gcc/mcore-elf/4.6.0/c0_div\libgcc.a(_fpcmp_parts_df.o)
 .bss           0x00000000        0x0 D:\software_xqy\CCore_IDE/tool-chain/ccore-elf/lib/gcc/mcore-elf/4.6.0/c0_div\libgcc.a(_fpcmp_parts_df.o)
 .data          0x00000000        0x0 D:\software_xqy\CCore_IDE/tool-chain/ccore-elf/lib/gcc/mcore-elf/4.6.0/c0_div\libgcc.a(_lshrdi3.o)
 .bss           0x00000000        0x0 D:\software_xqy\CCore_IDE/tool-chain/ccore-elf/lib/gcc/mcore-elf/4.6.0/c0_div\libgcc.a(_lshrdi3.o)
 .data          0x00000000        0x0 D:\software_xqy\CCore_IDE/tool-chain/ccore-elf/lib/gcc/mcore-elf/4.6.0/c0_div\libgcc.a(_ashldi3.o)
 .bss           0x00000000        0x0 D:\software_xqy\CCore_IDE/tool-chain/ccore-elf/lib/gcc/mcore-elf/4.6.0/c0_div\libgcc.a(_ashldi3.o)
 .text          0x00000000        0x0 D:\software_xqy\CCore_IDE/tool-chain/ccore-elf/lib/gcc/mcore-elf/4.6.0/c0_div\libgcc.a(_clz.o)
 .data          0x00000000        0x0 D:\software_xqy\CCore_IDE/tool-chain/ccore-elf/lib/gcc/mcore-elf/4.6.0/c0_div\libgcc.a(_clz.o)
 .bss           0x00000000        0x0 D:\software_xqy\CCore_IDE/tool-chain/ccore-elf/lib/gcc/mcore-elf/4.6.0/c0_div\libgcc.a(_clz.o)
 .data          0x00000000        0x0 D:\software_xqy\CCore_IDE/tool-chain/ccore-elf/mcore-elf/lib/c0_div\libc.a(lib_a-abort.o)
 .bss           0x00000000        0x0 D:\software_xqy\CCore_IDE/tool-chain/ccore-elf/mcore-elf/lib/c0_div\libc.a(lib_a-abort.o)
 .data          0x00000000        0x0 D:\software_xqy\CCore_IDE/tool-chain/ccore-elf/mcore-elf/lib/c0_div\libc.a(lib_a-memcmp.o)
 .bss           0x00000000        0x0 D:\software_xqy\CCore_IDE/tool-chain/ccore-elf/mcore-elf/lib/c0_div\libc.a(lib_a-memcmp.o)
 .data          0x00000000        0x0 D:\software_xqy\CCore_IDE/tool-chain/ccore-elf/mcore-elf/lib/c0_div\libc.a(lib_a-memset.o)
 .bss           0x00000000        0x0 D:\software_xqy\CCore_IDE/tool-chain/ccore-elf/mcore-elf/lib/c0_div\libc.a(lib_a-memset.o)
 .data          0x00000000        0x0 D:\software_xqy\CCore_IDE/tool-chain/ccore-elf/mcore-elf/lib/c0_div\libc.a(lib_a-s_modf.o)
 .bss           0x00000000        0x0 D:\software_xqy\CCore_IDE/tool-chain/ccore-elf/mcore-elf/lib/c0_div\libc.a(lib_a-s_modf.o)
 .data          0x00000000        0x0 D:\software_xqy\CCore_IDE/tool-chain/ccore-elf/mcore-elf/lib/c0_div\libc.a(lib_a-signal.o)
 .bss           0x00000000        0x0 D:\software_xqy\CCore_IDE/tool-chain/ccore-elf/mcore-elf/lib/c0_div\libc.a(lib_a-signal.o)
 .data          0x00000000        0x0 D:\software_xqy\CCore_IDE/tool-chain/ccore-elf/mcore-elf/lib/c0_div\libc.a(lib_a-signalr.o)
 .bss           0x00000000        0x0 D:\software_xqy\CCore_IDE/tool-chain/ccore-elf/mcore-elf/lib/c0_div\libc.a(lib_a-signalr.o)
 .data          0x00000000        0x0 D:\software_xqy\CCore_IDE/tool-chain/ccore-elf/mcore-elf/lib/c0_div\libc.a(lib_a-strcat.o)
 .bss           0x00000000        0x0 D:\software_xqy\CCore_IDE/tool-chain/ccore-elf/mcore-elf/lib/c0_div\libc.a(lib_a-strcat.o)
 .data          0x00000000        0x0 D:\software_xqy\CCore_IDE/tool-chain/ccore-elf/mcore-elf/lib/c0_div\libc.a(lib_a-strcmp.o)
 .bss           0x00000000        0x0 D:\software_xqy\CCore_IDE/tool-chain/ccore-elf/mcore-elf/lib/c0_div\libc.a(lib_a-strcmp.o)
 .data          0x00000000        0x0 D:\software_xqy\CCore_IDE/tool-chain/ccore-elf/mcore-elf/lib/c0_div\libc.a(lib_a-strcpy.o)
 .bss           0x00000000        0x0 D:\software_xqy\CCore_IDE/tool-chain/ccore-elf/mcore-elf/lib/c0_div\libc.a(lib_a-strcpy.o)
 .data          0x00000000        0x0 D:\software_xqy\CCore_IDE/tool-chain/ccore-elf/mcore-elf/lib/c0_div\libc.a(lib_a-strlen.o)
 .bss           0x00000000        0x0 D:\software_xqy\CCore_IDE/tool-chain/ccore-elf/mcore-elf/lib/c0_div\libc.a(lib_a-strlen.o)
 .text          0x00000000        0x0 D:\software_xqy\CCore_IDE/tool-chain/ccore-elf/mcore-elf/lib/c0_div\libc.a(lib_a-impure.o)
 .bss           0x00000000        0x0 D:\software_xqy\CCore_IDE/tool-chain/ccore-elf/mcore-elf/lib/c0_div\libc.a(lib_a-impure.o)
 .rodata        0x00000000        0x4 D:\software_xqy\CCore_IDE/tool-chain/ccore-elf/mcore-elf/lib/c0_div\libc.a(lib_a-impure.o)
 .data          0x00000000        0x0 D:\software_xqy\CCore_IDE/tool-chain/ccore-elf/mcore-elf/lib/c0_div\libc.a(lib_a-mlock.o)
 .bss           0x00000000        0x0 D:\software_xqy\CCore_IDE/tool-chain/ccore-elf/mcore-elf/lib/c0_div\libc.a(lib_a-mlock.o)
 .text          0x00000000      0x128 D:\software_xqy\CCore_IDE/tool-chain/ccore-elf/mcore-elf/lib/c0_div\libc.a(lib_a-reent.o)
 .data          0x00000000        0x0 D:\software_xqy\CCore_IDE/tool-chain/ccore-elf/mcore-elf/lib/c0_div\libc.a(lib_a-reent.o)
 .bss           0x00000000        0x0 D:\software_xqy\CCore_IDE/tool-chain/ccore-elf/mcore-elf/lib/c0_div\libc.a(lib_a-reent.o)
 .data          0x00000000        0x0 D:\software_xqy\CCore_IDE/tool-chain/ccore-elf/mcore-elf/lib/c0_div\libc.a(lib_a-sbrkr.o)
 .bss           0x00000000        0x0 D:\software_xqy\CCore_IDE/tool-chain/ccore-elf/mcore-elf/lib/c0_div\libc.a(lib_a-sbrkr.o)
 .data          0x00000000        0x0 D:\software_xqy\CCore_IDE/tool-chain/ccore-elf/mcore-elf/lib/c0_div\libc.a(lib_a-freer.o)
 .bss           0x00000000        0x0 D:\software_xqy\CCore_IDE/tool-chain/ccore-elf/mcore-elf/lib/c0_div\libc.a(lib_a-freer.o)
 .data          0x00000000        0x0 D:\software_xqy\CCore_IDE/tool-chain/ccore-elf/mcore-elf/lib/c0_div\libcmb.a(sbrk.o)
 .data          0x00000000        0x0 D:\software_xqy\CCore_IDE/tool-chain/ccore-elf/mcore-elf/lib/c0_div\libcmb.a(write.o)
 .bss           0x00000000        0x0 D:\software_xqy\CCore_IDE/tool-chain/ccore-elf/mcore-elf/lib/c0_div\libcmb.a(write.o)
 .data          0x00000000        0x0 D:\software_xqy\CCore_IDE/tool-chain/ccore-elf/mcore-elf/lib/c0_div\libcmb.a(cmb-exit.o)
 .bss           0x00000000        0x0 D:\software_xqy\CCore_IDE/tool-chain/ccore-elf/mcore-elf/lib/c0_div\libcmb.a(cmb-exit.o)
 .data          0x00000000        0x0 D:\software_xqy\CCore_IDE/tool-chain/ccore-elf/mcore-elf/lib/c0_div\libcmb.a(cmb-outbyte.o)
 .bss           0x00000000        0x0 D:\software_xqy\CCore_IDE/tool-chain/ccore-elf/mcore-elf/lib/c0_div\libcmb.a(cmb-outbyte.o)
 .data          0x00000000        0x0 D:\software_xqy\CCore_IDE/tool-chain/ccore-elf/mcore-elf/lib/c0_div\libcmb.a(getpid.o)
 .bss           0x00000000        0x0 D:\software_xqy\CCore_IDE/tool-chain/ccore-elf/mcore-elf/lib/c0_div\libcmb.a(getpid.o)
 .data          0x00000000        0x0 D:\software_xqy\CCore_IDE/tool-chain/ccore-elf/mcore-elf/lib/c0_div\libcmb.a(kill.o)
 .bss           0x00000000        0x0 D:\software_xqy\CCore_IDE/tool-chain/ccore-elf/mcore-elf/lib/c0_div\libcmb.a(kill.o)
 .text          0x00000000        0x0 D:\work\k205_gx\K205_360S\CORE\src\drv\libEflash.a(eflash.o)
 .data          0x00000000        0x0 D:\work\k205_gx\K205_360S\CORE\src\drv\libEflash.a(eflash.o)
 .text.eflash_lib_version
                0x00000000       0x12 D:\work\k205_gx\K205_360S\CORE\src\drv\libEflash.a(eflash.o)
 .text.save_ecc_state
                0x00000000       0x18 D:\work\k205_gx\K205_360S\CORE\src\drv\libEflash.a(eflash.o)
 .text.restore_ecc_state
                0x00000000       0x1c D:\work\k205_gx\K205_360S\CORE\src\drv\libEflash.a(eflash.o)
 .text.eflash_program
                0x00000000       0x40 D:\work\k205_gx\K205_360S\CORE\src\drv\libEflash.a(eflash.o)
 .text.eflash_page_erase
                0x00000000       0x40 D:\work\k205_gx\K205_360S\CORE\src\drv\libEflash.a(eflash.o)
 .text.eflash_set_read_wait_cycle
                0x00000000       0x30 D:\work\k205_gx\K205_360S\CORE\src\drv\libEflash.a(eflash.o)
 .text._eflash_program_2_7u
                0x00000000       0x58 D:\work\k205_gx\K205_360S\CORE\src\drv\libEflash.a(eflash.o)
 .text.eflash_special_area_program
                0x00000000       0x44 D:\work\k205_gx\K205_360S\CORE\src\drv\libEflash.a(eflash.o)
 .text.eflash_special_area_page_erase
                0x00000000       0x40 D:\work\k205_gx\K205_360S\CORE\src\drv\libEflash.a(eflash.o)
 .text.eflash_special_area_page_erase_cache_clean
                0x00000000       0x3c D:\work\k205_gx\K205_360S\CORE\src\drv\libEflash.a(eflash.o)
 .text.eflash_special_area_bulk_program
                0x00000000       0x48 D:\work\k205_gx\K205_360S\CORE\src\drv\libEflash.a(eflash.o)
 .text.eflash_bit_prog
                0x00000000       0x44 D:\work\k205_gx\K205_360S\CORE\src\drv\libEflash.a(eflash.o)
 .text.eflash_bit_read
                0x00000000       0x34 D:\work\k205_gx\K205_360S\CORE\src\drv\libEflash.a(eflash.o)
 .text          0x00000000        0x0 D:\work\k205_gx\K205_360S\CORE\src\drv\libEflash.a(cache.o)
 .data          0x00000000        0x0 D:\work\k205_gx\K205_360S\CORE\src\drv\libEflash.a(cache.o)
 .bss           0x00000000        0x0 D:\work\k205_gx\K205_360S\CORE\src\drv\libEflash.a(cache.o)
 .text.enable_cache
                0x00000000       0x48 D:\work\k205_gx\K205_360S\CORE\src\drv\libEflash.a(cache.o)
 .text          0x00000000        0x0 D:\work\k205_gx\K205_360S\CORE\src\drv\libCUni360S_mcc.a(mcc_bsp.o)
 .data          0x00000000        0x0 D:\work\k205_gx\K205_360S\CORE\src\drv\libCUni360S_mcc.a(mcc_bsp.o)
 .bss           0x00000000        0x0 D:\work\k205_gx\K205_360S\CORE\src\drv\libCUni360S_mcc.a(mcc_bsp.o)
 .text          0x00000000        0x0 D:\work\k205_gx\K205_360S\CORE\src\drv\libCUni360S_mcc.a(mcc_decode.o)
 .data          0x00000000        0x0 D:\work\k205_gx\K205_360S\CORE\src\drv\libCUni360S_mcc.a(mcc_decode.o)
 .text.mcc_raw_data_output_t1
                0x00000000        0x2 D:\work\k205_gx\K205_360S\CORE\src\drv\libCUni360S_mcc.a(mcc_decode.o)
 .text.mcc_raw_data_output_t2
                0x00000000        0x2 D:\work\k205_gx\K205_360S\CORE\src\drv\libCUni360S_mcc.a(mcc_decode.o)
 .text.mcc_raw_data_output_t3
                0x00000000        0x2 D:\work\k205_gx\K205_360S\CORE\src\drv\libCUni360S_mcc.a(mcc_decode.o)
 .text.mcc_adc_get_data_track1
                0x00000000        0x4 D:\work\k205_gx\K205_360S\CORE\src\drv\libCUni360S_mcc.a(mcc_decode.o)
 .text.mcc_adc_get_bat_val
                0x00000000        0x4 D:\work\k205_gx\K205_360S\CORE\src\drv\libCUni360S_mcc.a(mcc_decode.o)
 .text          0x00000000        0x0 D:\work\k205_gx\K205_360S\CORE\src\drv\libCUni360S_mcc.a(mcc_lib.o)
 .data          0x00000000        0x0 D:\work\k205_gx\K205_360S\CORE\src\drv\libCUni360S_mcc.a(mcc_lib.o)
 .rodata        0x00000000       0x64 D:\work\k205_gx\K205_360S\CORE\src\drv\libCUni360S_mcc.a(mcc_lib.o)
 .text          0x00000000        0x0 D:\work\k205_gx\K205_360S\CORE\src\drv\libAlgorithm.a(aes.o)
 .data          0x00000000        0x0 D:\work\k205_gx\K205_360S\CORE\src\drv\libAlgorithm.a(aes.o)
 .bss           0x00000000        0x1 D:\work\k205_gx\K205_360S\CORE\src\drv\libAlgorithm.a(aes.o)
 .text.AES_Enable
                0x00000000       0x10 D:\work\k205_gx\K205_360S\CORE\src\drv\libAlgorithm.a(aes.o)
 .text.AES_Disable
                0x00000000       0x10 D:\work\k205_gx\K205_360S\CORE\src\drv\libAlgorithm.a(aes.o)
 .text.aes_key  0x00000000       0x7c D:\work\k205_gx\K205_360S\CORE\src\drv\libAlgorithm.a(aes.o)
 .text.aes_crypt
                0x00000000       0xc0 D:\work\k205_gx\K205_360S\CORE\src\drv\libAlgorithm.a(aes.o)
 .text.aes_FakeKey
                0x00000000      0x386 D:\work\k205_gx\K205_360S\CORE\src\drv\libAlgorithm.a(aes.o)
 .text.aes_FakeKey_CBC
                0x00000000      0x6a8 D:\work\k205_gx\K205_360S\CORE\src\drv\libAlgorithm.a(aes.o)
 .text.aes_FakeKey_Middle
                0x00000000      0x2da D:\work\k205_gx\K205_360S\CORE\src\drv\libAlgorithm.a(aes.o)
 .text.aes_FakeKey_CBC_Middle
                0x00000000      0x53c D:\work\k205_gx\K205_360S\CORE\src\drv\libAlgorithm.a(aes.o)
 .text.AES_EnDecrypt
                0x00000000      0x210 D:\work\k205_gx\K205_360S\CORE\src\drv\libAlgorithm.a(aes.o)
 .text.aes_dpa_ctrl
                0x00000000       0x40 D:\work\k205_gx\K205_360S\CORE\src\drv\libAlgorithm.a(aes.o)
 .debug_frame   0x00000000      0x158 D:\work\k205_gx\K205_360S\CORE\src\drv\libAlgorithm.a(aes.o)
 .debug_info    0x00000000      0xb3f D:\work\k205_gx\K205_360S\CORE\src\drv\libAlgorithm.a(aes.o)
 .debug_abbrev  0x00000000      0x31a D:\work\k205_gx\K205_360S\CORE\src\drv\libAlgorithm.a(aes.o)
 .debug_loc     0x00000000     0x1537 D:\work\k205_gx\K205_360S\CORE\src\drv\libAlgorithm.a(aes.o)
 .debug_aranges
                0x00000000       0x68 D:\work\k205_gx\K205_360S\CORE\src\drv\libAlgorithm.a(aes.o)
 .debug_ranges  0x00000000      0x120 D:\work\k205_gx\K205_360S\CORE\src\drv\libAlgorithm.a(aes.o)
 .debug_line    0x00000000     0x11ff D:\work\k205_gx\K205_360S\CORE\src\drv\libAlgorithm.a(aes.o)
 .debug_str     0x00000000      0x304 D:\work\k205_gx\K205_360S\CORE\src\drv\libAlgorithm.a(aes.o)
 .comment       0x00000000       0x12 D:\work\k205_gx\K205_360S\CORE\src\drv\libAlgorithm.a(aes.o)
 .text          0x00000000        0x0 D:\work\k205_gx\K205_360S\CORE\src\drv\libAlgorithm.a(crypt.o)
 .data          0x00000000        0x0 D:\work\k205_gx\K205_360S\CORE\src\drv\libAlgorithm.a(crypt.o)
 .text.R_memcpy_f
                0x00000000       0x12 D:\work\k205_gx\K205_360S\CORE\src\drv\libAlgorithm.a(crypt.o)
 .text.GeneratePrime
                0x00000000      0x400 D:\work\k205_gx\K205_360S\CORE\src\drv\libAlgorithm.a(crypt.o)
 .text.R_GeneratePEMKeys
                0x00000000      0x490 D:\work\k205_gx\K205_360S\CORE\src\drv\libAlgorithm.a(crypt.o)
 .text.RsaGenerateKeyPair
                0x00000000       0x28 D:\work\k205_gx\K205_360S\CORE\src\drv\libAlgorithm.a(crypt.o)
 .text.RsaPrivKey
                0x00000000       0xb0 D:\work\k205_gx\K205_360S\CORE\src\drv\libAlgorithm.a(crypt.o)
 .text.RsaAEmodN
                0x00000000       0x60 D:\work\k205_gx\K205_360S\CORE\src\drv\libAlgorithm.a(crypt.o)
 .text.RsaBigintmodECRT
                0x00000000      0x1ec D:\work\k205_gx\K205_360S\CORE\src\drv\libAlgorithm.a(crypt.o)
 .text.rsa_dpa_ctrl
                0x00000000       0x30 D:\work\k205_gx\K205_360S\CORE\src\drv\libAlgorithm.a(crypt.o)
 .rodata        0x00000000      0x440 D:\work\k205_gx\K205_360S\CORE\src\drv\libAlgorithm.a(crypt.o)
 .text          0x00000000        0x0 D:\work\k205_gx\K205_360S\CORE\src\drv\libAlgorithm.a(des.o)
 .data          0x00000000        0x0 D:\work\k205_gx\K205_360S\CORE\src\drv\libAlgorithm.a(des.o)
 .text.des_dpa_ctrl
                0x00000000       0x40 D:\work\k205_gx\K205_360S\CORE\src\drv\libAlgorithm.a(des.o)
 .text          0x00000000        0x0 D:\work\k205_gx\K205_360S\CORE\src\drv\libAlgorithm.a(lib.o)
 .data          0x00000000        0x0 D:\work\k205_gx\K205_360S\CORE\src\drv\libAlgorithm.a(lib.o)
 .text.Get_AlgLib_Version
                0x00000000       0x1c D:\work\k205_gx\K205_360S\CORE\src\drv\libAlgorithm.a(lib.o)
 .text.reverse  0x00000000       0x20 D:\work\k205_gx\K205_360S\CORE\src\drv\libAlgorithm.a(lib.o)
 .text.reverse_16
                0x00000000       0x10 D:\work\k205_gx\K205_360S\CORE\src\drv\libAlgorithm.a(lib.o)
 .text.sign     0x00000000      0x230 D:\work\k205_gx\K205_360S\CORE\src\drv\libAlgorithm.a(lib.o)
 .text.EccBig32Allnot0
                0x00000000       0x3c D:\work\k205_gx\K205_360S\CORE\src\drv\libAlgorithm.a(lib.o)
 .text.EccBig32CmpBig
                0x00000000       0x70 D:\work\k205_gx\K205_360S\CORE\src\drv\libAlgorithm.a(lib.o)
 .text.EccBig32GetNBit
                0x00000000       0x22 D:\work\k205_gx\K205_360S\CORE\src\drv\libAlgorithm.a(lib.o)
 .text.GetLen   0x00000000       0x28 D:\work\k205_gx\K205_360S\CORE\src\drv\libAlgorithm.a(lib.o)
 .text.Eccint32MovBig_Int
                0x00000000       0x18 D:\work\k205_gx\K205_360S\CORE\src\drv\libAlgorithm.a(lib.o)
 .text.Eccint32MovBig_EQU
                0x00000000       0x18 D:\work\k205_gx\K205_360S\CORE\src\drv\libAlgorithm.a(lib.o)
 .text.EccBig1243
                0x00000000       0xa8 D:\work\k205_gx\K205_360S\CORE\src\drv\libAlgorithm.a(lib.o)
 .text.EccBig123
                0x00000000       0x94 D:\work\k205_gx\K205_360S\CORE\src\drv\libAlgorithm.a(lib.o)
 .text.EccBig13
                0x00000000       0x7c D:\work\k205_gx\K205_360S\CORE\src\drv\libAlgorithm.a(lib.o)
 .text.EccBig12
                0x00000000       0x80 D:\work\k205_gx\K205_360S\CORE\src\drv\libAlgorithm.a(lib.o)
 .text.EccBig23
                0x00000000       0x80 D:\work\k205_gx\K205_360S\CORE\src\drv\libAlgorithm.a(lib.o)
 .text.EccBig2  0x00000000       0x6c D:\work\k205_gx\K205_360S\CORE\src\drv\libAlgorithm.a(lib.o)
 .text.EccBig3  0x00000000       0x6c D:\work\k205_gx\K205_360S\CORE\src\drv\libAlgorithm.a(lib.o)
 .text.EccBigModMul
                0x00000000       0xb0 D:\work\k205_gx\K205_360S\CORE\src\drv\libAlgorithm.a(lib.o)
 .text.EccBigExtEuc
                0x00000000       0xf4 D:\work\k205_gx\K205_360S\CORE\src\drv\libAlgorithm.a(lib.o)
 .text.EccBigFf1
                0x00000000       0x5a D:\work\k205_gx\K205_360S\CORE\src\drv\libAlgorithm.a(lib.o)
 .text.EccPointAdd
                0x00000000      0x298 D:\work\k205_gx\K205_360S\CORE\src\drv\libAlgorithm.a(lib.o)
 .text.EccPointMul
                0x00000000      0x714 D:\work\k205_gx\K205_360S\CORE\src\drv\libAlgorithm.a(lib.o)
 .text.SM2_Enable
                0x00000000       0x10 D:\work\k205_gx\K205_360S\CORE\src\drv\libAlgorithm.a(lib.o)
 .text.SM2_Disable
                0x00000000       0x10 D:\work\k205_gx\K205_360S\CORE\src\drv\libAlgorithm.a(lib.o)
 .text.SM2GenerateKeyPair
                0x00000000       0xa0 D:\work\k205_gx\K205_360S\CORE\src\drv\libAlgorithm.a(lib.o)
 .text.SM2Encrypt_std
                0x00000000      0x5ec D:\work\k205_gx\K205_360S\CORE\src\drv\libAlgorithm.a(lib.o)
 .text.SM2Decrypt_std
                0x00000000      0x4ae D:\work\k205_gx\K205_360S\CORE\src\drv\libAlgorithm.a(lib.o)
 .text.SM2Encrypt_V1
                0x00000000       0x28 D:\work\k205_gx\K205_360S\CORE\src\drv\libAlgorithm.a(lib.o)
 .text.SM2Decrypt_V1
                0x00000000       0x2c D:\work\k205_gx\K205_360S\CORE\src\drv\libAlgorithm.a(lib.o)
 .text.SM2Encrypt_V2
                0x00000000       0x28 D:\work\k205_gx\K205_360S\CORE\src\drv\libAlgorithm.a(lib.o)
 .text.SM2Decrypt_V2
                0x00000000       0x2c D:\work\k205_gx\K205_360S\CORE\src\drv\libAlgorithm.a(lib.o)
 .text.SM2Signature
                0x00000000      0x4e0 D:\work\k205_gx\K205_360S\CORE\src\drv\libAlgorithm.a(lib.o)
 .text.SM2Verification
                0x00000000      0x1e8 D:\work\k205_gx\K205_360S\CORE\src\drv\libAlgorithm.a(lib.o)
 .text.SM2KeyExchange
                0x00000000      0x980 D:\work\k205_gx\K205_360S\CORE\src\drv\libAlgorithm.a(lib.o)
 .text.PowMod_Soft
                0x00000000      0x26c D:\work\k205_gx\K205_360S\CORE\src\drv\libAlgorithm.a(lib.o)
 .rodata        0x00000000       0x64 D:\work\k205_gx\K205_360S\CORE\src\drv\libAlgorithm.a(lib.o)
 .text          0x00000000        0x0 D:\work\k205_gx\K205_360S\CORE\src\drv\libAlgorithm.a(sha.o)
 .data          0x00000000        0x0 D:\work\k205_gx\K205_360S\CORE\src\drv\libAlgorithm.a(sha.o)
 .bss           0x00000000        0x0 D:\work\k205_gx\K205_360S\CORE\src\drv\libAlgorithm.a(sha.o)
 .text          0x00000000        0x0 D:\work\k205_gx\K205_360S\CORE\src\drv\libAlgorithm.a(sm2.o)
 .data          0x00000000        0x0 D:\work\k205_gx\K205_360S\CORE\src\drv\libAlgorithm.a(sm2.o)
 .bss           0x00000000        0x0 D:\work\k205_gx\K205_360S\CORE\src\drv\libAlgorithm.a(sm2.o)
 .text.EccBig32Initial
                0x00000000       0x18 D:\work\k205_gx\K205_360S\CORE\src\drv\libAlgorithm.a(sm2.o)
 .text.EccBig32MovBig
                0x00000000       0x1c D:\work\k205_gx\K205_360S\CORE\src\drv\libAlgorithm.a(sm2.o)
 .text.EccByBufToBigInt32
                0x00000000       0xb4 D:\work\k205_gx\K205_360S\CORE\src\drv\libAlgorithm.a(sm2.o)
 .text.EccBig32IntToByBuf
                0x00000000       0x54 D:\work\k205_gx\K205_360S\CORE\src\drv\libAlgorithm.a(sm2.o)
 .text.EccCharToHex
                0x00000000      0x11e D:\work\k205_gx\K205_360S\CORE\src\drv\libAlgorithm.a(sm2.o)
 .text.SM2SignatureWithIDA
                0x00000000       0xc4 D:\work\k205_gx\K205_360S\CORE\src\drv\libAlgorithm.a(sm2.o)
 .text.SM2VerificationWithIDA
                0x00000000       0xc0 D:\work\k205_gx\K205_360S\CORE\src\drv\libAlgorithm.a(sm2.o)
 .text.S1_SB_Check
                0x00000000       0x54 D:\work\k205_gx\K205_360S\CORE\src\drv\libAlgorithm.a(sm2.o)
 .text.SA_S2_Check
                0x00000000       0x54 D:\work\k205_gx\K205_360S\CORE\src\drv\libAlgorithm.a(sm2.o)
 .text.AB_Check
                0x00000000       0x30 D:\work\k205_gx\K205_360S\CORE\src\drv\libAlgorithm.a(sm2.o)
 .text.SM2GenerateRA
                0x00000000       0x58 D:\work\k205_gx\K205_360S\CORE\src\drv\libAlgorithm.a(sm2.o)
 .text.SM2GenerateRBKB
                0x00000000      0x154 D:\work\k205_gx\K205_360S\CORE\src\drv\libAlgorithm.a(sm2.o)
 .text.SM2GenerateKA
                0x00000000       0xfc D:\work\k205_gx\K205_360S\CORE\src\drv\libAlgorithm.a(sm2.o)
 .text.SM2VerifySA
                0x00000000       0x18 D:\work\k205_gx\K205_360S\CORE\src\drv\libAlgorithm.a(sm2.o)
 .rodata        0x00000000        0xc D:\work\k205_gx\K205_360S\CORE\src\drv\libAlgorithm.a(sm2.o)
 .debug_frame   0x00000000      0x170 D:\work\k205_gx\K205_360S\CORE\src\drv\libAlgorithm.a(sm2.o)
 .debug_info    0x00000000      0xe01 D:\work\k205_gx\K205_360S\CORE\src\drv\libAlgorithm.a(sm2.o)
 .debug_abbrev  0x00000000      0x323 D:\work\k205_gx\K205_360S\CORE\src\drv\libAlgorithm.a(sm2.o)
 .debug_loc     0x00000000      0xc18 D:\work\k205_gx\K205_360S\CORE\src\drv\libAlgorithm.a(sm2.o)
 .debug_aranges
                0x00000000       0x88 D:\work\k205_gx\K205_360S\CORE\src\drv\libAlgorithm.a(sm2.o)
 .debug_ranges  0x00000000       0xd8 D:\work\k205_gx\K205_360S\CORE\src\drv\libAlgorithm.a(sm2.o)
 .debug_line    0x00000000      0x8f0 D:\work\k205_gx\K205_360S\CORE\src\drv\libAlgorithm.a(sm2.o)
 .debug_str     0x00000000      0x3f9 D:\work\k205_gx\K205_360S\CORE\src\drv\libAlgorithm.a(sm2.o)
 .comment       0x00000000       0x12 D:\work\k205_gx\K205_360S\CORE\src\drv\libAlgorithm.a(sm2.o)
 .text          0x00000000        0x0 D:\work\k205_gx\K205_360S\CORE\src\drv\libAlgorithm.a(sms4.o)
 .data          0x00000000        0x0 D:\work\k205_gx\K205_360S\CORE\src\drv\libAlgorithm.a(sms4.o)
 .bss           0x00000000        0x1 D:\work\k205_gx\K205_360S\CORE\src\drv\libAlgorithm.a(sms4.o)
 .text.SMS4_Enable
                0x00000000       0x10 D:\work\k205_gx\K205_360S\CORE\src\drv\libAlgorithm.a(sms4.o)
 .text.SMS4_Disable
                0x00000000       0x10 D:\work\k205_gx\K205_360S\CORE\src\drv\libAlgorithm.a(sms4.o)
 .text.sms4_key
                0x00000000       0x60 D:\work\k205_gx\K205_360S\CORE\src\drv\libAlgorithm.a(sms4.o)
 .text.sms4_crypt
                0x00000000       0xdc D:\work\k205_gx\K205_360S\CORE\src\drv\libAlgorithm.a(sms4.o)
 .text.sms4_FakeKey
                0x00000000      0x316 D:\work\k205_gx\K205_360S\CORE\src\drv\libAlgorithm.a(sms4.o)
 .text.sms4_FakeKey_CBC
                0x00000000      0x5d8 D:\work\k205_gx\K205_360S\CORE\src\drv\libAlgorithm.a(sms4.o)
 .text.sms4_FakeKey_Middle
                0x00000000      0x2c8 D:\work\k205_gx\K205_360S\CORE\src\drv\libAlgorithm.a(sms4.o)
 .text.sms4_FakeKey_CBC_Middle
                0x00000000      0x4dc D:\work\k205_gx\K205_360S\CORE\src\drv\libAlgorithm.a(sms4.o)
 .text.SMS4_EnDecrypt
                0x00000000      0x1d8 D:\work\k205_gx\K205_360S\CORE\src\drv\libAlgorithm.a(sms4.o)
 .text.sm4_dpa_ctrl
                0x00000000       0x40 D:\work\k205_gx\K205_360S\CORE\src\drv\libAlgorithm.a(sms4.o)
 .debug_frame   0x00000000      0x150 D:\work\k205_gx\K205_360S\CORE\src\drv\libAlgorithm.a(sms4.o)
 .debug_info    0x00000000      0xa25 D:\work\k205_gx\K205_360S\CORE\src\drv\libAlgorithm.a(sms4.o)
 .debug_abbrev  0x00000000      0x2b7 D:\work\k205_gx\K205_360S\CORE\src\drv\libAlgorithm.a(sms4.o)
 .debug_loc     0x00000000     0x142e D:\work\k205_gx\K205_360S\CORE\src\drv\libAlgorithm.a(sms4.o)
 .debug_aranges
                0x00000000       0x68 D:\work\k205_gx\K205_360S\CORE\src\drv\libAlgorithm.a(sms4.o)
 .debug_ranges  0x00000000      0x128 D:\work\k205_gx\K205_360S\CORE\src\drv\libAlgorithm.a(sms4.o)
 .debug_line    0x00000000     0x10ea D:\work\k205_gx\K205_360S\CORE\src\drv\libAlgorithm.a(sms4.o)
 .debug_str     0x00000000      0x2e4 D:\work\k205_gx\K205_360S\CORE\src\drv\libAlgorithm.a(sms4.o)
 .comment       0x00000000       0x12 D:\work\k205_gx\K205_360S\CORE\src\drv\libAlgorithm.a(sms4.o)
 .text          0x00000000        0x0 D:\work\k205_gx\K205_360S\CORE\src\drv\libAlgorithm.a(bigint.o)
 .data          0x00000000        0x0 D:\work\k205_gx\K205_360S\CORE\src\drv\libAlgorithm.a(bigint.o)
 .bss           0x00000000        0x0 D:\work\k205_gx\K205_360S\CORE\src\drv\libAlgorithm.a(bigint.o)
 .text.Char2BigInt
                0x00000000       0x64 D:\work\k205_gx\K205_360S\CORE\src\drv\libAlgorithm.a(bigint.o)
 .text.BIG_Assign2Exp
                0x00000000       0x2c D:\work\k205_gx\K205_360S\CORE\src\drv\libAlgorithm.a(bigint.o)
 .text.BIG_Bits
                0x00000000       0x48 D:\work\k205_gx\K205_360S\CORE\src\drv\libAlgorithm.a(bigint.o)
 .text.BigInt2Char
                0x00000000       0x66 D:\work\k205_gx\K205_360S\CORE\src\drv\libAlgorithm.a(bigint.o)
 .text.BIG_ModMult
                0x00000000       0x48 D:\work\k205_gx\K205_360S\CORE\src\drv\libAlgorithm.a(bigint.o)
 .text          0x00000000        0x0 D:\work\k205_gx\K205_360S\CORE\src\security\algorithm\libAlg.a(algorithm.o)
 .data          0x00000000        0x0 D:\work\k205_gx\K205_360S\CORE\src\security\algorithm\libAlg.a(algorithm.o)
 .bss           0x00000000        0x0 D:\work\k205_gx\K205_360S\CORE\src\security\algorithm\libAlg.a(algorithm.o)
 .text.AlgLogHex
                0x00000000        0x2 D:\work\k205_gx\K205_360S\CORE\src\security\algorithm\libAlg.a(algorithm.o)
 .rodata.str1.4
                0x00000000       0x80 D:\work\k205_gx\K205_360S\CORE\src\security\algorithm\libAlg.a(algorithm.o)
 .text.dev_algorithm_getlibversion
                0x00000000       0x44 D:\work\k205_gx\K205_360S\CORE\src\security\algorithm\libAlg.a(algorithm.o)
 .text.dev_algorithm_sm4
                0x00000000       0x94 D:\work\k205_gx\K205_360S\CORE\src\security\algorithm\libAlg.a(algorithm.o)
 .text.sm4_mac_cbc
                0x00000000      0x130 D:\work\k205_gx\K205_360S\CORE\src\security\algorithm\libAlg.a(algorithm.o)
 .text.dev_algorithm_calsm4mac
                0x00000000      0x200 D:\work\k205_gx\K205_360S\CORE\src\security\algorithm\libAlg.a(algorithm.o)
 .text.dev_algorithm_sm3
                0x00000000       0x70 D:\work\k205_gx\K205_360S\CORE\src\security\algorithm\libAlg.a(algorithm.o)
 .text.dev_algorithm_sm2verify
                0x00000000       0x7c D:\work\k205_gx\K205_360S\CORE\src\security\algorithm\libAlg.a(algorithm.o)
 .text.dev_algorithm_sm2sign
                0x00000000       0x7c D:\work\k205_gx\K205_360S\CORE\src\security\algorithm\libAlg.a(algorithm.o)
 .text.dev_algorithm_smsign_hash
                0x00000000       0xa4 D:\work\k205_gx\K205_360S\CORE\src\security\algorithm\libAlg.a(algorithm.o)
 .text.dev_algorithm_sm2decrypt
                0x00000000       0x84 D:\work\k205_gx\K205_360S\CORE\src\security\algorithm\libAlg.a(algorithm.o)
 .text.dev_algorithm_sm2encrypt
                0x00000000       0x84 D:\work\k205_gx\K205_360S\CORE\src\security\algorithm\libAlg.a(algorithm.o)
 .text.dev_algorithm_gensm2key
                0x00000000       0x68 D:\work\k205_gx\K205_360S\CORE\src\security\algorithm\libAlg.a(algorithm.o)
 .text.dev_algorithm_sha512
                0x00000000       0x70 D:\work\k205_gx\K205_360S\CORE\src\security\algorithm\libAlg.a(algorithm.o)
 .text.dev_algorithm_sha1
                0x00000000       0x6c D:\work\k205_gx\K205_360S\CORE\src\security\algorithm\libAlg.a(algorithm.o)
 .text.dev_algorithm_aes
                0x00000000       0x9c D:\work\k205_gx\K205_360S\CORE\src\security\algorithm\libAlg.a(algorithm.o)
 .rodata        0x00000000        0x9 D:\work\k205_gx\K205_360S\CORE\src\security\algorithm\libAlg.a(algorithm.o)
 .text.algorithm_computemac
                0x00000000      0x174 D:\work\k205_gx\K205_360S\CORE\src\security\algorithm\libAlg.a(algorithm.o)
 .text.algorithm_macfinal
                0x00000000      0x10c D:\work\k205_gx\K205_360S\CORE\src\security\algorithm\libAlg.a(algorithm.o)
 .text.dev_algorithm_calculatemac
                0x00000000       0xec D:\work\k205_gx\K205_360S\CORE\src\security\algorithm\libAlg.a(algorithm.o)
 .text.get_algtypebycfg
                0x00000000        0x4 D:\work\k205_gx\K205_360S\CORE\src\security\algorithm\libAlg.a(algorithm.o)
 .text.dev_algorithm_calrsaprivate
                0x00000000      0x148 D:\work\k205_gx\K205_360S\CORE\src\security\algorithm\libAlg.a(algorithm.o)
 .text.algorithm_transto_standard1024bit
                0x00000000      0x158 D:\work\k205_gx\K205_360S\CORE\src\security\algorithm\libAlg.a(algorithm.o)
 .text.algorithm_transto_standard2048bit
                0x00000000       0x74 D:\work\k205_gx\K205_360S\CORE\src\security\algorithm\libAlg.a(algorithm.o)
 .text.dev_algorithm_generatersakey
                0x00000000      0x1a0 D:\work\k205_gx\K205_360S\CORE\src\security\algorithm\libAlg.a(algorithm.o)
 .text          0x00000000        0x0 D:\work\k205_gx\K205_360S\CORE\src\security\algorithm\libAlg.a(algorithm_hardware.o)
 .data          0x00000000        0x0 D:\work\k205_gx\K205_360S\CORE\src\security\algorithm\libAlg.a(algorithm_hardware.o)
 .bss           0x00000000        0x0 D:\work\k205_gx\K205_360S\CORE\src\security\algorithm\libAlg.a(algorithm_hardware.o)
 .text.dev_hardware_aes
                0x00000000       0x18 D:\work\k205_gx\K205_360S\CORE\src\security\algorithm\libAlg.a(algorithm_hardware.o)
 .text.dev_hardware_genrsakey
                0x00000000       0x14 D:\work\k205_gx\K205_360S\CORE\src\security\algorithm\libAlg.a(algorithm_hardware.o)
 .text.dev_hardware_sha1
                0x00000000       0x10 D:\work\k205_gx\K205_360S\CORE\src\security\algorithm\libAlg.a(algorithm_hardware.o)
 .text.dev_hardware_sha512
                0x00000000       0x10 D:\work\k205_gx\K205_360S\CORE\src\security\algorithm\libAlg.a(algorithm_hardware.o)
 .text.dev_hardware_gensm2key
                0x00000000       0x10 D:\work\k205_gx\K205_360S\CORE\src\security\algorithm\libAlg.a(algorithm_hardware.o)
 .text.dev_hardware_sm2encrypt
                0x00000000       0x18 D:\work\k205_gx\K205_360S\CORE\src\security\algorithm\libAlg.a(algorithm_hardware.o)
 .text.dev_hardware_sm2decrypt
                0x00000000       0x18 D:\work\k205_gx\K205_360S\CORE\src\security\algorithm\libAlg.a(algorithm_hardware.o)
 .text.dev_hardware_smsign_hash
                0x00000000       0x20 D:\work\k205_gx\K205_360S\CORE\src\security\algorithm\libAlg.a(algorithm_hardware.o)
 .text.dev_hardware_sm2sign
                0x00000000       0x18 D:\work\k205_gx\K205_360S\CORE\src\security\algorithm\libAlg.a(algorithm_hardware.o)
 .text.dev_hardware_sm2verify
                0x00000000       0x18 D:\work\k205_gx\K205_360S\CORE\src\security\algorithm\libAlg.a(algorithm_hardware.o)
 .text.dev_hardware_sm3
                0x00000000       0x10 D:\work\k205_gx\K205_360S\CORE\src\security\algorithm\libAlg.a(algorithm_hardware.o)
 .text.dev_hardware_sm4
                0x00000000       0x18 D:\work\k205_gx\K205_360S\CORE\src\security\algorithm\libAlg.a(algorithm_hardware.o)
 .text          0x00000000        0x0 D:\work\k205_gx\K205_360S\CORE\src\security\hal\libcpuhal.a(cpuhal.o)
 .data          0x00000000        0x0 D:\work\k205_gx\K205_360S\CORE\src\security\hal\libcpuhal.a(cpuhal.o)
 .text.LogHex   0x00000000        0x2 D:\work\k205_gx\K205_360S\CORE\src\security\hal\libcpuhal.a(cpuhal.o)
 .text.dev_cpuhal_getlibversion
                0x00000000       0x44 D:\work\k205_gx\K205_360S\CORE\src\security\hal\libcpuhal.a(cpuhal.o)
 .text.dev_cpuhal_aes
                0x00000000      0x12c D:\work\k205_gx\K205_360S\CORE\src\security\hal\libcpuhal.a(cpuhal.o)
 .text.dev_cpuhal_genrsakey
                0x00000000      0x154 D:\work\k205_gx\K205_360S\CORE\src\security\hal\libcpuhal.a(cpuhal.o)
 .text.dev_cpuhal_sha1
                0x00000000       0xb8 D:\work\k205_gx\K205_360S\CORE\src\security\hal\libcpuhal.a(cpuhal.o)
 .text.dev_cpuhal_sha512
                0x00000000       0xb8 D:\work\k205_gx\K205_360S\CORE\src\security\hal\libcpuhal.a(cpuhal.o)
 .text.dev_cpuhal_gensm2key
                0x00000000       0x68 D:\work\k205_gx\K205_360S\CORE\src\security\hal\libcpuhal.a(cpuhal.o)
 .text.dev_cpuhal_sm2encrypt
                0x00000000       0x6c D:\work\k205_gx\K205_360S\CORE\src\security\hal\libcpuhal.a(cpuhal.o)
 .text.dev_cpuhal_sm2decrypt
                0x00000000       0x70 D:\work\k205_gx\K205_360S\CORE\src\security\hal\libcpuhal.a(cpuhal.o)
 .text.dev_cpuhal_smsign_hash
                0x00000000       0x78 D:\work\k205_gx\K205_360S\CORE\src\security\hal\libcpuhal.a(cpuhal.o)
 .text.dev_cpuhal_sm2sign
                0x00000000       0xc8 D:\work\k205_gx\K205_360S\CORE\src\security\hal\libcpuhal.a(cpuhal.o)
 .text.dev_cpuhal_sm2verify
                0x00000000       0xb8 D:\work\k205_gx\K205_360S\CORE\src\security\hal\libcpuhal.a(cpuhal.o)
 .text.dev_cpuhal_sm3
                0x00000000       0xb8 D:\work\k205_gx\K205_360S\CORE\src\security\hal\libcpuhal.a(cpuhal.o)
 .text.dev_cpuhal_sm4
                0x00000000      0x100 D:\work\k205_gx\K205_360S\CORE\src\security\hal\libcpuhal.a(cpuhal.o)
 .text          0x00000000        0x0 D:\work\k205_gx\K205_360S\CORE\src\security\hal\libcpuhal.a(pci_drv.o)
 .data          0x00000000        0x0 D:\work\k205_gx\K205_360S\CORE\src\security\hal\libcpuhal.a(pci_drv.o)
 .bss           0x00000000        0x0 D:\work\k205_gx\K205_360S\CORE\src\security\hal\libcpuhal.a(pci_drv.o)
 .text.Nvram_Write
                0x00000000       0x2c D:\work\k205_gx\K205_360S\CORE\src\security\hal\libcpuhal.a(pci_drv.o)
 .text.PCI_NVSRAM_WtiteByte_Api
                0x00000000       0x1c D:\work\k205_gx\K205_360S\CORE\src\security\hal\libcpuhal.a(pci_drv.o)
 .text.Nvram_Read
                0x00000000       0x30 D:\work\k205_gx\K205_360S\CORE\src\security\hal\libcpuhal.a(pci_drv.o)
 .text.PCI_NVSRAM_ReadByte_Api
                0x00000000       0x1c D:\work\k205_gx\K205_360S\CORE\src\security\hal\libcpuhal.a(pci_drv.o)
 .text.PCI_SDIO_Dynamic_Set
                0x00000000       0x60 D:\work\k205_gx\K205_360S\CORE\src\security\hal\libcpuhal.a(pci_drv.o)
 .text.PCI_VD_Set
                0x00000000       0x44 D:\work\k205_gx\K205_360S\CORE\src\security\hal\libcpuhal.a(pci_drv.o)
 .text.PCI_TD_Set
                0x00000000       0x54 D:\work\k205_gx\K205_360S\CORE\src\security\hal\libcpuhal.a(pci_drv.o)
 .text          0x00000000        0x0 D:\work\k205_gx\K205_360S\CORE\src\security\sec_datastore\libsecstore.a(dev_secstore.o)
 .data          0x00000000        0x0 D:\work\k205_gx\K205_360S\CORE\src\security\sec_datastore\libsecstore.a(dev_secstore.o)
 .bss           0x00000000        0x0 D:\work\k205_gx\K205_360S\CORE\src\security\sec_datastore\libsecstore.a(dev_secstore.o)
 .text.store_printf
                0x00000000        0x2 D:\work\k205_gx\K205_360S\CORE\src\security\sec_datastore\libsecstore.a(dev_secstore.o)
 .text.dev_secstore_writekey
                0x00000000       0x5c D:\work\k205_gx\K205_360S\CORE\src\security\sec_datastore\libsecstore.a(dev_secstore.o)
 .text.dev_secstore_readkey
                0x00000000       0x64 D:\work\k205_gx\K205_360S\CORE\src\security\sec_datastore\libsecstore.a(dev_secstore.o)
 .rodata.str1.4
                0x00000000       0x19 D:\work\k205_gx\K205_360S\CORE\src\security\sec_datastore\libsecstore.a(dev_secstore.o)
 .text.dev_secstore_clearkey
                0x00000000       0xb8 D:\work\k205_gx\K205_360S\CORE\src\security\sec_datastore\libsecstore.a(dev_secstore.o)
 .text.dev_secstore_erasedata
                0x00000000       0xac D:\work\k205_gx\K205_360S\CORE\src\security\sec_datastore\libsecstore.a(dev_secstore.o)
 .rodata        0x00000000       0x2f D:\work\k205_gx\K205_360S\CORE\src\security\sec_datastore\libsecstore.a(dev_secstore.o)
 .text          0x00000000        0x0 D:\work\k205_gx\K205_360S\CORE\src\security\sec_datastore\libsecstore.a(dev_secstore_key.o)
 .data          0x00000000        0x0 D:\work\k205_gx\K205_360S\CORE\src\security\sec_datastore\libsecstore.a(dev_secstore_key.o)
 .bss           0x00000000        0x0 D:\work\k205_gx\K205_360S\CORE\src\security\sec_datastore\libsecstore.a(dev_secstore_key.o)
 .text.dev_secstore_getKeyConfig
                0x00000000       0x34 D:\work\k205_gx\K205_360S\CORE\src\security\sec_datastore\libsecstore.a(dev_secstore_key.o)
 .text.dev_secstore_keyinfo
                0x00000000       0x30 D:\work\k205_gx\K205_360S\CORE\src\security\sec_datastore\libsecstore.a(dev_secstore_key.o)
 .text          0x00000000        0x0 D:\work\k205_gx\K205_360S\CORE\src\moddev\rfcard_mh1608\libnfc.a(ddi_rfcard_mh1608.o)
 .text          0x00000000        0x0 D:\work\k205_gx\K205_360S\CORE\src\moddev\rfcard_mh1608\libnfc.a(dev_rfcard_mh1608.o)
 .data          0x00000000        0x0 D:\work\k205_gx\K205_360S\CORE\src\moddev\rfcard_mh1608\libnfc.a(dev_rfcard_mh1608.o)
 .text.dev_rf_is_open
                0x00000000       0x10 D:\work\k205_gx\K205_360S\CORE\src\moddev\rfcard_mh1608\libnfc.a(dev_rfcard_mh1608.o)
 .text.dev_rf_print_pcd_param
                0x00000000        0x2 D:\work\k205_gx\K205_360S\CORE\src\moddev\rfcard_mh1608\libnfc.a(dev_rfcard_mh1608.o)
 .text.dev_rf_print_picc_param
                0x00000000        0x2 D:\work\k205_gx\K205_360S\CORE\src\moddev\rfcard_mh1608\libnfc.a(dev_rfcard_mh1608.o)
 .text.dev_rf_delay_SFGT
                0x00000000       0x60 D:\work\k205_gx\K205_360S\CORE\src\moddev\rfcard_mh1608\libnfc.a(dev_rfcard_mh1608.o)
 .text.dev_rf_typeA_polling
                0x00000000       0x88 D:\work\k205_gx\K205_360S\CORE\src\moddev\rfcard_mh1608\libnfc.a(dev_rfcard_mh1608.o)
 .text.dev_rf_typeB_slotmarker
                0x00000000       0x88 D:\work\k205_gx\K205_360S\CORE\src\moddev\rfcard_mh1608\libnfc.a(dev_rfcard_mh1608.o)
 .text.dev_rf_typeB_polling
                0x00000000       0xa4 D:\work\k205_gx\K205_360S\CORE\src\moddev\rfcard_mh1608\libnfc.a(dev_rfcard_mh1608.o)
 .text.dev_rf_emv_remove
                0x00000000       0x8c D:\work\k205_gx\K205_360S\CORE\src\moddev\rfcard_mh1608\libnfc.a(dev_rfcard_mh1608.o)
 .text.dev_rf_polling_absent
                0x00000000       0x48 D:\work\k205_gx\K205_360S\CORE\src\moddev\rfcard_mh1608\libnfc.a(dev_rfcard_mh1608.o)
 .text.dev_rf_polling_present
                0x00000000       0x8c D:\work\k205_gx\K205_360S\CORE\src\moddev\rfcard_mh1608\libnfc.a(dev_rfcard_mh1608.o)
 .text.dev_rf_polling
                0x00000000       0x58 D:\work\k205_gx\K205_360S\CORE\src\moddev\rfcard_mh1608\libnfc.a(dev_rfcard_mh1608.o)
 .text.dev_rf_pcd_get_picc_status
                0x00000000       0x10 D:\work\k205_gx\K205_360S\CORE\src\moddev\rfcard_mh1608\libnfc.a(dev_rfcard_mh1608.o)
 .text.dev_rf_pcd_get_picc_change_status
                0x00000000       0x10 D:\work\k205_gx\K205_360S\CORE\src\moddev\rfcard_mh1608\libnfc.a(dev_rfcard_mh1608.o)
 .text          0x00000000        0x0 D:\work\k205_gx\K205_360S\CORE\src\moddev\rfcard_mh1608\libnfc.a(drv_rfcard_mh1608.o)
 .data          0x00000000        0x0 D:\work\k205_gx\K205_360S\CORE\src\moddev\rfcard_mh1608\libnfc.a(drv_rfcard_mh1608.o)
 .text.verify_param_checksum
                0x00000000       0x1c D:\work\k205_gx\K205_360S\CORE\src\moddev\rfcard_mh1608\libnfc.a(drv_rfcard_mh1608.o)
 .text.drv_mh523_is_power_off
                0x00000000       0x18 D:\work\k205_gx\K205_360S\CORE\src\moddev\rfcard_mh1608\libnfc.a(drv_rfcard_mh1608.o)
 .text          0x00000000        0x0 D:\work\k205_gx\K205_360S\CORE\src\moddev\iccard\libicc.a(ddi_iccard.o)
 .data          0x00000000        0x0 D:\work\k205_gx\K205_360S\CORE\src\moddev\iccard\libicc.a(ddi_iccard.o)
 .rodata.str1.4
                0x00000000       0xd8 D:\work\k205_gx\K205_360S\CORE\src\moddev\iccard\libicc.a(ddi_iccard.o)
 .rodata        0x00000000        0x8 D:\work\k205_gx\K205_360S\CORE\src\moddev\iccard\libicc.a(ddi_iccard.o)
 .text.ddi_iccpsam_test
                0x00000000      0x138 D:\work\k205_gx\K205_360S\CORE\src\moddev\iccard\libicc.a(ddi_iccard.o)
 .text          0x00000000        0x0 D:\work\k205_gx\K205_360S\CORE\src\moddev\iccard\libicc.a(dev_iccard.o)
 .bss           0x00000000        0xd D:\work\k205_gx\K205_360S\CORE\src\moddev\iccard\libicc.a(dev_iccard.o)
 .text.drv_sim7816_send_data
                0x00000000       0x14 D:\work\k205_gx\K205_360S\CORE\src\moddev\iccard\libicc.a(dev_iccard.o)
 .text          0x00000000        0x0 D:\work\k205_gx\K205_360S\CORE\src\moddev\iccard\libicc.a(drv_iccard.o)
 .data          0x00000000        0x0 D:\work\k205_gx\K205_360S\CORE\src\moddev\iccard\libicc.a(drv_iccard.o)
 .bss           0x00000000        0xd D:\work\k205_gx\K205_360S\CORE\src\moddev\iccard\libicc.a(drv_iccard.o)
 .text.UsiSetClkFreq
                0x00000000        0xc D:\work\k205_gx\K205_360S\CORE\src\moddev\iccard\libicc.a(drv_iccard.o)
 .text.UsiClearWTO
                0x00000000       0x1c D:\work\k205_gx\K205_360S\CORE\src\moddev\iccard\libicc.a(drv_iccard.o)
 .text          0x00000000        0x0 D:\work\k205_gx\K205_360S\CORE\src\moddev\iccard\libicc.a(icc_hardware.o)
 .data          0x00000000        0x0 D:\work\k205_gx\K205_360S\CORE\src\moddev\iccard\libicc.a(icc_hardware.o)
 .bss           0x00000000        0xd D:\work\k205_gx\K205_360S\CORE\src\moddev\iccard\libicc.a(icc_hardware.o)
 .text.delay1ETU
                0x00000000        0xa D:\work\k205_gx\K205_360S\CORE\src\moddev\iccard\libicc.a(icc_hardware.o)
 .text.DelayNETU
                0x00000000       0x18 D:\work\k205_gx\K205_360S\CORE\src\moddev\iccard\libicc.a(icc_hardware.o)
 .text.Delay10US
                0x00000000        0xa D:\work\k205_gx\K205_360S\CORE\src\moddev\iccard\libicc.a(icc_hardware.o)
 .text.SC_VoltageConfig
                0x00000000        0xc D:\work\k205_gx\K205_360S\CORE\src\moddev\iccard\libicc.a(icc_hardware.o)
 .text.Open_ICCard_Vcc_5V
                0x00000000       0x14 D:\work\k205_gx\K205_360S\CORE\src\moddev\iccard\libicc.a(icc_hardware.o)
 .text.Open_ICCard_Vcc_3V
                0x00000000       0x14 D:\work\k205_gx\K205_360S\CORE\src\moddev\iccard\libicc.a(icc_hardware.o)
 .text.Close_ICCard_Vcc
                0x00000000       0x2c D:\work\k205_gx\K205_360S\CORE\src\moddev\iccard\libicc.a(icc_hardware.o)
 .text.Open_ICCard_VCC
                0x00000000       0x3c D:\work\k205_gx\K205_360S\CORE\src\moddev\iccard\libicc.a(icc_hardware.o)
 .text.SC_Init  0x00000000       0x10 D:\work\k205_gx\K205_360S\CORE\src\moddev\iccard\libicc.a(icc_hardware.o)
 .text.SC_HotInit
                0x00000000       0x10 D:\work\k205_gx\K205_360S\CORE\src\moddev\iccard\libicc.a(icc_hardware.o)
 .text.SC_DevInit
                0x00000000       0x20 D:\work\k205_gx\K205_360S\CORE\src\moddev\iccard\libicc.a(icc_hardware.o)
 .text.SC_RSTSET
                0x00000000       0x20 D:\work\k205_gx\K205_360S\CORE\src\moddev\iccard\libicc.a(icc_hardware.o)
 .text.USART_ByteReceive
                0x00000000       0xfc D:\work\k205_gx\K205_360S\CORE\src\moddev\iccard\libicc.a(icc_hardware.o)
 .text.USART_TsReceive
                0x00000000       0xb4 D:\work\k205_gx\K205_360S\CORE\src\moddev\iccard\libicc.a(icc_hardware.o)
 .text.SC_GetByte
                0x00000000       0x18 D:\work\k205_gx\K205_360S\CORE\src\moddev\iccard\libicc.a(icc_hardware.o)
 .text.SC_PutByte
                0x00000000       0x78 D:\work\k205_gx\K205_360S\CORE\src\moddev\iccard\libicc.a(icc_hardware.o)
 .text          0x00000000        0x0 D:\work\k205_gx\K205_360S\CORE\src\moddev\bluetooth\libbt_lib.a(dev_bt_api.o)
 .data          0x00000000        0x0 D:\work\k205_gx\K205_360S\CORE\src\moddev\bluetooth\libbt_lib.a(dev_bt_api.o)
 .text.is_bt_open
                0x00000000        0xc D:\work\k205_gx\K205_360S\CORE\src\moddev\bluetooth\libbt_lib.a(dev_bt_api.o)
 .text.bt_test  0x00000000       0x40 D:\work\k205_gx\K205_360S\CORE\src\moddev\bluetooth\libbt_lib.a(dev_bt_api.o)
 .text          0x00000000        0x0 D:\work\k205_gx\K205_360S\CORE\src\moddev\bluetooth\libbt_lib.a(yc1021.o)
 .text.YC_softReset
                0x00000000       0x3c D:\work\k205_gx\K205_360S\CORE\src\moddev\bluetooth\libbt_lib.a(yc1021.o)
 .text.YC_CMD_get_status
                0x00000000        0x4 D:\work\k205_gx\K205_360S\CORE\src\moddev\bluetooth\libbt_lib.a(yc1021.o)
 .text.YC_Status
                0x00000000        0x2 D:\work\k205_gx\K205_360S\CORE\src\moddev\bluetooth\libbt_lib.a(yc1021.o)
 .text.YC_CMD_set_uart_baud
                0x00000000       0x54 D:\work\k205_gx\K205_360S\CORE\src\moddev\bluetooth\libbt_lib.a(yc1021.o)
 .text.YC_CMD_set_uart_flow
                0x00000000       0x48 D:\work\k205_gx\K205_360S\CORE\src\moddev\bluetooth\libbt_lib.a(yc1021.o)
 .text          0x00000000        0x0 D:\work\k205_gx\K205_360S\CORE\src\moddev\bluetooth\libbt_lib.a(app_fifo.o)
 .data          0x00000000        0x0 D:\work\k205_gx\K205_360S\CORE\src\moddev\bluetooth\libbt_lib.a(app_fifo.o)
 .bss           0x00000000        0x0 D:\work\k205_gx\K205_360S\CORE\src\moddev\bluetooth\libbt_lib.a(app_fifo.o)
 .text.app_fifo_del
                0x00000000       0x3e D:\work\k205_gx\K205_360S\CORE\src\moddev\bluetooth\libbt_lib.a(app_fifo.o)
 .text.app_fifo_read_no_del
                0x00000000       0x68 D:\work\k205_gx\K205_360S\CORE\src\moddev\bluetooth\libbt_lib.a(app_fifo.o)
 .text.app_fifo_clear
                0x00000000       0x14 D:\work\k205_gx\K205_360S\CORE\src\moddev\bluetooth\libbt_lib.a(app_fifo.o)
 .text          0x00000000        0x0 D:\work\k205_gx\K205_360S\CORE\src\ccore\libReadChipSn.a(LibReadChipSN.o)
 .data          0x00000000        0x0 D:\work\k205_gx\K205_360S\CORE\src\ccore\libReadChipSn.a(LibReadChipSN.o)
 .bss           0x00000000        0x0 D:\work\k205_gx\K205_360S\CORE\src\ccore\libReadChipSn.a(LibReadChipSN.o)

Memory Configuration

Name             Origin             Length             Attributes
rom              0x00000000         0x00008000
eflash0          0x0040a000         0x00000200
eflash1          0x0040a200         0x00000600
eflash           0x0040a800         0x00028400
ram              0x00800000         0x0000b000
*default*        0x00000000         0xffffffff

Linker script and memory map

                0x0080e000                STACK_LOCATION = 0x80e000

.text_entry     0x0040a000      0x100
                0x0040a000                VECTOR_LOCATION = .
 *vector_table.o(.rodata*)
 .rodata        0x0040a000      0x100 ./src/ccore/vector_table.o
                0x0040a000                VecTable

.crt0           0x0040a100       0x4c
 *crt0.o(.text)
 .text          0x0040a100       0x4c ./src/ccore/crt0.o
                0x0040a100                __start
                0x0040a132                exit

.eflash_addr    0x0040a200      0x40c
 *(.rodata.core_api)
 .rodata.core_api
                0x0040a200      0x40c ./src/api/dev_api.o
                0x0040a200                core_api

.rodata         0x0040a800     0x66fb
 *(.rodata*)
 .rodata        0x0040a800        0xc ./src/sysdrv/rtc/RTC.o
 .rodata.str1.4
                0x0040a80c       0x22 ./src/sysdev/usb/dev_usb.o
 *fill*         0x0040a82e        0x2 00
 .rodata        0x0040a830       0x12 ./src/sysdev/usb/dev_usb.o
                0x0040a830                usb_version
 *fill*         0x0040a842        0x2 00
 .rodata.str1.4
                0x0040a844       0x59 ./src/sysdev/rtc/dev_rtc.o
 *fill*         0x0040a89d        0x3 00
 .rodata.str1.4
                0x0040a8a0       0x1d ./src/sysdev/flash/dev_flash.o
 *fill*         0x0040a8bd        0x3 00
 .rodata.str1.4
                0x0040a8c0        0xa ./src/sysdev/adc/dev_adc.o
 *fill*         0x0040a8ca        0x2 00
 .rodata        0x0040a8cc       0x74 ./src/sysbus/usb/drv_usb.o
                0x0040a8f4                StringDescLen
                0x0040a8f8                String3_iSerialNumber
                0x0040a918                String2_iProduct
                0x0040a92c                String1_iManufacturer
                0x0040a93c                String0_LangID
 .rodata.str1.4
                0x0040a940       0x1d ./src/sysbus/spi/SPI_MASTER.o
 *fill*         0x0040a95d        0x3 00
 .rodata.str1.4
                0x0040a960       0x1a ./src/sysbus/gpio/gpio.o
 *fill*         0x0040a97a        0x2 00
 .rodata        0x0040a97c      0x2f8 ./src/sysbus/gpio/gpio.o
 .rodata        0x0040ac74      0x3fc ./src/security/key/key_dbg.o
                0x0040ac74                fangqieji_pk_release
                0x0040ad98                g_dbg_root_public_key
 .rodata.str1.4
                0x0040b070       0xd0 ./src/security/app/ex_func.o
 .rodata        0x0040b140       0x2e ./src/security/app/ex_func.o
 *fill*         0x0040b16e        0x2 00
 .rodata.str1.4
                0x0040b170       0x17 ./src/security/app/pci_func.o
 *fill*         0x0040b187        0x1 00
 .rodata.str1.4
                0x0040b188       0x6f ./src/security/app/protocol.o
 *fill*         0x0040b1f7        0x1 00
 .rodata        0x0040b1f8       0x39 ./src/security/app/protocol.o
 *fill*         0x0040b231        0x3 00
 .rodata.str1.4
                0x0040b234       0x2a ./src/security/app/rootkey.o
 *fill*         0x0040b25e        0x2 00
 .rodata.str1.4
                0x0040b260       0x92 ./src/security/app/sd_tamper.o
 *fill*         0x0040b2f2        0x2 00
 .rodata        0x0040b2f4       0x14 ./src/security/app/sd_tamper.o
                0x0040b304                gFACTORY_SUPPORT
 .rodata.str1.4
                0x0040b308       0x34 ./src/moddrv/power/drv_power.o
 .rodata        0x0040b33c       0x20 ./src/moddrv/power/drv_power.o
 .rodata.str1.4
                0x0040b35c       0x3a ./src/moddrv/magcard/drv_magcard.o
 *fill*         0x0040b396        0x2 00
 .rodata.str1.4
                0x0040b398       0x49 ./src/moddrv/magcard/mcc_adc.o
 *fill*         0x0040b3e1        0x3 00
 .rodata        0x0040b3e4        0xd ./src/moddrv/magcard/mcc_adc.o
 *fill*         0x0040b3f1        0x3 00
 .rodata        0x0040b3f4      0xaa8 ./src/moddrv/lcd/drv_lcd_font_data.o
                0x0040b3f4                ascii_12_6
                0x0040b88c                ascii_16_8
 .rodata.str1.4
                0x0040be9c       0x2e ./src/moddev/power/dev_power.o
 *fill*         0x0040beca        0x2 00
 .rodata        0x0040becc       0x1c ./src/moddev/power/dev_power.o
 .rodata.str1.4
                0x0040bee8       0x13 ./src/moddev/magcard/ddi_magcard.o
 *fill*         0x0040befb        0x1 00
 .rodata        0x0040befc        0xe ./src/moddev/magcard/ddi_magcard.o
 *fill*         0x0040bf0a        0x2 00
 .rodata.str1.4
                0x0040bf0c       0x12 ./src/moddev/magcard/dev_magcard.o
 *fill*         0x0040bf1e        0x2 00
 .rodata.str1.4
                0x0040bf20       0x25 ./src/moddev/lcd/dev_lcd.o
 *fill*         0x0040bf45        0x3 00
 .rodata        0x0040bf48       0x2c ./src/moddev/lcd/dev_lcd.o
 .rodata.str1.4
                0x0040bf74        0xc ./src/moddev/keyboard/dev_key.o
 .rodata        0x0040bf80       0x19 ./src/moddev/keyboard/dev_key.o
                0x0040bf80                FUNC_KEY_TABLE1
 *fill*         0x0040bf99        0x3 00
 .rodata.str1.4
                0x0040bf9c       0xb0 ./src/moddev/bt_update/bt_update.o
 .rodata        0x0040c04c       0xe0 ./src/moddev/bt_update/bt_update.o
                0x0040c084                CanDownFileStore
 .rodata.str1.4
                0x0040c12c       0x8c ./src/main/main.o
 .rodata.str1.4
                0x0040c1b8      0x84c ./src/main/test.o
 .rodata        0x0040ca04      0x400 ./src/fun/dev_maths.o
                0x0040ca04                CRC32TAB
 .rodata.str1.4
                0x0040ce04       0x1f ./src/fs/fs_vs.o
 *fill*         0x0040ce23        0x1 00
 .rodata        0x0040ce24       0x85 ./src/fs/fs_vs.o
                0x0040ce24                apppara
                0x0040ce3c                securtkey
                0x0040ce50                serialnum
                0x0040ce70                csrkey
                0x0040ce84                skkey
                0x0040ce98                vfs_ver
 *fill*         0x0040cea9        0x3 00
 .rodata        0x0040ceac      0x1b1 ./src/drv/alg_drv.o
                0x0040cec8                charCoefficientB
                0x0040cf0c                charCoefficientA
                0x0040cf50                charPrimeP
                0x0040cf94                charPrimeN
                0x0040cfd8                charGy
                0x0040d01c                charGx
 *fill*         0x0040d05d        0x3 00
 .rodata.str1.4
                0x0040d060       0x41 ./src/drv/cpm_drv.o
 *fill*         0x0040d0a1        0x3 00
 .rodata        0x0040d0a4       0x10 ./src/drv/dmac_drv.o
 .rodata.str1.4
                0x0040d0b4       0x16 ./src/drv/edma_drv.o
 *fill*         0x0040d0ca        0x2 00
 .rodata.str1.4
                0x0040d0cc      0x1d7 ./src/drv/eport_drv.o
 *fill*         0x0040d2a3        0x1 00
 .rodata        0x0040d2a4       0x14 ./src/drv/eport_drv.o
 .rodata.str1.4
                0x0040d2b8       0x54 ./src/drv/i2c_drv.o
 .rodata.str1.4
                0x0040d30c       0x17 ./src/drv/pit32_drv.o
 *fill*         0x0040d323        0x1 00
 .rodata.str1.4
                0x0040d324       0x15 ./src/drv/pit_drv.o
 *fill*         0x0040d339        0x3 00
 .rodata.str1.4
                0x0040d33c      0x145 ./src/drv/pwm_drv.o
 *fill*         0x0040d481        0x3 00
 .rodata.str1.4
                0x0040d484       0x7e ./src/drv/rtc_drv.o
 *fill*         0x0040d502        0x2 00
 .rodata        0x0040d504       0x14 ./src/drv/rtc_drv.o
 .rodata.str1.4
                0x0040d518       0x15 ./src/drv/spi_drv.o
 *fill*         0x0040d52d        0x3 00
 .rodata.str1.4
                0x0040d530       0x27 ./src/drv/tc_drv.o
 *fill*         0x0040d557        0x1 00
 .rodata.str1.4
                0x0040d558       0x15 ./src/drv/usi_drv.o
 *fill*         0x0040d56d        0x3 00
 .rodata.str1.4
                0x0040d570       0x98 ./src/common/alloc.o
 .rodata.str1.4
                0x0040d608       0x95 ./src/common/debug.o
 *fill*         0x0040d69d        0x3 00
 .rodata        0x0040d6a0       0x28 ./src/common/debug.o
 .rodata.str1.4
                0x0040d6c8       0xf8 ./src/common/download.o
 .rodata        0x0040d7c0       0xc8 ./src/common/download.o
                0x0040d868                connected
                0x0040d878                connecting
 .rodata        0x0040d888       0x32 ./src/common/misc.o
                0x0040d8a0                SecurityVersion
                0x0040d8a8                CoreVersion
 *fill*         0x0040d8ba        0x2 00
 .rodata.str1.4
                0x0040d8bc        0xa ./src/common/misc.o
 *fill*         0x0040d8c6        0x2 00
 .rodata        0x0040d8c8      0x144 ./src/common/syscfg.o
                0x0040d8e8                FLashFileLenDef
 .rodata.str1.4
                0x0040da0c       0x1f ./src/common/syscfg.o
 *fill*         0x0040da2b        0x1 00
 .rodata        0x0040da2c       0x90 ./src/common/update.o
                0x0040da2c                name_array
 .rodata        0x0040dabc       0x70 ./src/ccore/interrupt.o
 .rodata.str1.4
                0x0040db2c       0x21 ./src/ccore/vector_rce.o
 *fill*         0x0040db4d        0x3 00
 .rodata        0x0040db50       0x60 ./src/ccore/vector_rce.o
 .rodata        0x0040dbb0       0x18 D:\software_xqy\CCore_IDE/tool-chain/ccore-elf/lib/gcc/mcore-elf/4.6.0/c0_div\libgcc.a(_mul_df.o)
 .rodata        0x0040dbc8        0x8 D:\software_xqy\CCore_IDE/tool-chain/ccore-elf/lib/gcc/mcore-elf/4.6.0/c0_div\libgcc.a(_div_df.o)
 .rodata        0x0040dbd0        0x8 D:\software_xqy\CCore_IDE/tool-chain/ccore-elf/lib/gcc/mcore-elf/4.6.0/c0_div\libgcc.a(_si_to_df.o)
 .rodata        0x0040dbd8       0x14 D:\software_xqy\CCore_IDE/tool-chain/ccore-elf/lib/gcc/mcore-elf/4.6.0/c0_div\libgcc.a(_thenan_df.o)
                0x0040dbd8                __thenan_df
 .rodata        0x0040dbec       0x18 D:\software_xqy\CCore_IDE/tool-chain/ccore-elf/lib/gcc/mcore-elf/4.6.0/c0_div\libgcc.a(_pack_df.o)
 .rodata        0x0040dc04       0x18 D:\software_xqy\CCore_IDE/tool-chain/ccore-elf/lib/gcc/mcore-elf/4.6.0/c0_div\libgcc.a(_unpack_df.o)
 .rodata        0x0040dc1c      0x100 D:\software_xqy\CCore_IDE/tool-chain/ccore-elf/lib/gcc/mcore-elf/4.6.0/c0_div\libgcc.a(_clz.o)
                0x0040dc1c                __clz_tab
 .rodata.str1.4
                0x0040dd1c        0x2 D:\software_xqy\CCore_IDE/tool-chain/ccore-elf/mcore-elf/lib/c0_div\libc.a(lib_a-impure.o)
 *fill*         0x0040dd1e        0x2 00
 .rodata.str1.4
                0x0040dd20       0x1a D:\software_xqy\CCore_IDE/tool-chain/ccore-elf/mcore-elf/lib/c0_div\libcmb.a(sbrk.o)
 *fill*         0x0040dd3a        0x2 00
 .rodata        0x0040dd3c       0x20 D:\work\k205_gx\K205_360S\CORE\src\drv\libCUni360S_mcc.a(mcc_decode.o)
 .rodata.str1.4
                0x0040dd5c       0x55 D:\work\k205_gx\K205_360S\CORE\src\drv\libCUni360S_mcc.a(mcc_lib.o)
 *fill*         0x0040ddb1        0x3 00
 .rodata.str1.4
                0x0040ddb4       0xcd D:\work\k205_gx\K205_360S\CORE\src\security\hal\libcpuhal.a(cpuhal.o)
 *fill*         0x0040de81        0x3 00
 .rodata.str1.4
                0x0040de84      0x1aa D:\work\k205_gx\K205_360S\CORE\src\security\hal\libcpuhal.a(pci_drv.o)
 *fill*         0x0040e02e        0x2 00
 .rodata.str1.4
                0x0040e030      0x132 D:\work\k205_gx\K205_360S\CORE\src\security\sec_datastore\libsecstore.a(dev_secstore_key.o)
 *fill*         0x0040e162        0x2 00
 .rodata        0x0040e164       0xe4 D:\work\k205_gx\K205_360S\CORE\src\security\sec_datastore\libsecstore.a(dev_secstore_key.o)
                0x0040e164                g_dataConfigTab
                0x0040e1dc                g_keyConfigTab
 .rodata        0x0040e248       0x38 D:\work\k205_gx\K205_360S\CORE\src\moddev\rfcard_mh1608\libnfc.a(ddi_rfcard_mh1608.o)
 .rodata        0x0040e280       0x52 D:\work\k205_gx\K205_360S\CORE\src\moddev\rfcard_mh1608\libnfc.a(dev_rfcard_mh1608.o)
                0x0040e2c0                g_u16FscFsdTab
 *fill*         0x0040e2d2        0x2 00
 .rodata.str1.4
                0x0040e2d4       0x60 D:\work\k205_gx\K205_360S\CORE\src\moddev\rfcard_mh1608\libnfc.a(drv_rfcard_mh1608.o)
 .rodata        0x0040e334      0x100 D:\work\k205_gx\K205_360S\CORE\src\moddev\rfcard_mh1608\libnfc.a(drv_rfcard_mh1608.o)
                0x0040e334                crc8_tab
 .rodata.str1.4
                0x0040e434      0x184 D:\work\k205_gx\K205_360S\CORE\src\moddev\iccard\libicc.a(dev_iccard.o)
 .rodata        0x0040e5b8       0x45 D:\work\k205_gx\K205_360S\CORE\src\moddev\iccard\libicc.a(dev_iccard.o)
 *fill*         0x0040e5fd        0x3 00
 .rodata.str1.4
                0x0040e600       0x27 D:\work\k205_gx\K205_360S\CORE\src\moddev\iccard\libicc.a(drv_iccard.o)
 *fill*         0x0040e627        0x1 00
 .rodata        0x0040e628       0x40 D:\work\k205_gx\K205_360S\CORE\src\moddev\iccard\libicc.a(drv_iccard.o)
                0x0040e628                ___F_Integer
 .rodata        0x0040e668       0x5e D:\work\k205_gx\K205_360S\CORE\src\moddev\bluetooth\libbt_lib.a(dev_bt_api.o)
                0x0040e6b4                BTVersion
 *fill*         0x0040e6c6        0x2 00
 .rodata.str1.4
                0x0040e6c8       0x15 D:\work\k205_gx\K205_360S\CORE\src\moddev\bluetooth\libbt_lib.a(yc1021.o)
 *fill*         0x0040e6dd        0x3 00
 .rodata        0x0040e6e0     0x281b D:\work\k205_gx\K205_360S\CORE\src\moddev\bluetooth\libbt_lib.a(yc1021.o)
                0x0040e754                bd_mac_default
                0x0040e75c                yc_patch

.text           0x00410efc    0x1c60c
 *(.text*)
 .text.PIT_SPI3_ISR
                0x00410efc       0x2c ./src/sysdrv/timer/timer.o
                0x00410efc                PIT_SPI3_ISR
 .text.PIT32_SPI1_SPI2_ISR
                0x00410f28       0x2c ./src/sysdrv/timer/timer.o
                0x00410f28                PIT32_SPI1_SPI2_ISR
 .text.TimerEnable
                0x00410f54       0x34 ./src/sysdrv/timer/timer.o
                0x00410f54                TimerEnable
 .text.TimerInit
                0x00410f88       0x2c ./src/sysdrv/timer/timer.o
                0x00410f88                TimerInit
 .text.TimerDeinit
                0x00410fb4       0x38 ./src/sysdrv/timer/timer.o
                0x00410fb4                TimerDeinit
 .text.isleap   0x00410fec       0x4c ./src/sysdrv/rtc/RTC.o
 .text.dev_get_time
                0x00411038      0x114 ./src/sysdrv/rtc/RTC.o
                0x00411038                dev_get_time
 .text.dev_set_time
                0x0041114c       0xdc ./src/sysdrv/rtc/RTC.o
                0x0041114c                dev_set_time
 .text.dev_set_alarmtime
                0x00411228       0xe4 ./src/sysdrv/rtc/RTC.o
                0x00411228                dev_set_alarmtime
 .text.batRTCAlarm_YMDHMS
                0x0041130c       0x2c ./src/sysdrv/rtc/RTC.o
                0x0041130c                batRTCAlarm_YMDHMS
 .text.EFLASH_Init
                0x00411338       0x14 ./src/sysdrv/flash/flash.o
                0x00411338                EFLASH_Init
 .text.EFLASH_ByteRead
                0x0041134c        0x4 ./src/sysdrv/flash/flash.o
                0x0041134c                EFLASH_ByteRead
 .text.EFLASH_PageErase
                0x00411350       0x30 ./src/sysdrv/flash/flash.o
                0x00411350                EFLASH_PageErase
 .text.EFLASH_WordsProg
                0x00411380       0x3c ./src/sysdrv/flash/flash.o
                0x00411380                EFLASH_WordsProg
 .text.EPT_Init
                0x004113bc       0x2c ./src/sysdrv/SysTick/systick.o
                0x004113bc                EPT_Init
 .text.EPT_Start
                0x004113e8       0x10 ./src/sysdrv/SysTick/systick.o
                0x004113e8                EPT_Start
 .text.EPT_Stop
                0x004113f8       0x10 ./src/sysdrv/SysTick/systick.o
                0x004113f8                EPT_Stop
 .text.EPT_ISR  0x00411408       0x1c ./src/sysdrv/SysTick/systick.o
                0x00411408                EPT_ISR
 .text.GetTimeTick
                0x00411424        0xc ./src/sysdrv/SysTick/systick.o
                0x00411424                GetTimeTick
 .text.DelayMs  0x00411430       0x1c ./src/sysdrv/SysTick/systick.o
                0x00411430                DelayMs
 .text.dev_wdg_open
                0x0041144c       0x2c ./src/sysdev/wdt/dev_wdt.o
                0x0041144c                dev_wdg_open
 .text.dev_wdg_close
                0x00411478       0x20 ./src/sysdev/wdt/dev_wdt.o
                0x00411478                dev_wdg_close
 .text.dev_wdg_feed
                0x00411498       0x1c ./src/sysdev/wdt/dev_wdt.o
                0x00411498                dev_wdg_feed
 .text.usb_buf_put.constprop.2
                0x004114b4       0x6c ./src/sysdev/usb/dev_usb.o
 .text.usb_buf_fill
                0x00411520       0x38 ./src/sysdev/usb/dev_usb.o
                0x00411520                usb_buf_fill
 .text.ddi_usb_open
                0x00411558       0x68 ./src/sysdev/usb/dev_usb.o
                0x00411558                ddi_usb_open
 .text.ddi_usb_close
                0x004115c0       0x48 ./src/sysdev/usb/dev_usb.o
                0x004115c0                ddi_usb_close
 .text.ddi_usb_read
                0x00411608       0xfc ./src/sysdev/usb/dev_usb.o
                0x00411608                ddi_usb_read
 .text.ddi_usb_write
                0x00411704       0x4c ./src/sysdev/usb/dev_usb.o
                0x00411704                ddi_usb_write
 .text.ddi_usb_ioctl
                0x00411750       0x7c ./src/sysdev/usb/dev_usb.o
                0x00411750                ddi_usb_ioctl
 .text.dev_com_open
                0x004117cc       0x38 ./src/sysdev/uart/dev_uart.o
                0x004117cc                dev_com_open
 .text.dev_com_close
                0x00411804       0x2c ./src/sysdev/uart/dev_uart.o
                0x00411804                dev_com_close
 .text.dev_com_read
                0x00411830       0x34 ./src/sysdev/uart/dev_uart.o
                0x00411830                dev_com_read
 .text.dev_com_write
                0x00411864       0x34 ./src/sysdev/uart/dev_uart.o
                0x00411864                dev_com_write
 .text.ddi_com_open
                0x00411898       0x14 ./src/sysdev/uart/dev_uart.o
                0x00411898                ddi_com_open
 .text.ddi_com_close
                0x004118ac       0x14 ./src/sysdev/uart/dev_uart.o
                0x004118ac                ddi_com_close
 .text.ddi_com_clear
                0x004118c0       0x14 ./src/sysdev/uart/dev_uart.o
                0x004118c0                ddi_com_clear
 .text.ddi_com_read
                0x004118d4       0x14 ./src/sysdev/uart/dev_uart.o
                0x004118d4                ddi_com_read
 .text.ddi_com_write
                0x004118e8       0x14 ./src/sysdev/uart/dev_uart.o
                0x004118e8                ddi_com_write
 .text.ddi_com_ioctl
                0x004118fc        0x4 ./src/sysdev/uart/dev_uart.o
                0x004118fc                ddi_com_ioctl
 .text.dev_timer_open
                0x00411900       0x20 ./src/sysdev/time/dev_time.o
                0x00411900                dev_timer_open
 .text.dev_timer_close
                0x00411920       0x30 ./src/sysdev/time/dev_time.o
                0x00411920                dev_timer_close
 .text.dev_timer_enable
                0x00411950       0x30 ./src/sysdev/time/dev_time.o
                0x00411950                dev_timer_enable
 .text.dev_timer_config
                0x00411980       0x50 ./src/sysdev/time/dev_time.o
                0x00411980                dev_timer_config
 .text.dev_timer_set_irq
                0x004119d0       0x20 ./src/sysdev/time/dev_time.o
                0x004119d0                dev_timer_set_irq
 .text.dev_timer_free_irq
                0x004119f0       0x14 ./src/sysdev/time/dev_time.o
                0x004119f0                dev_timer_free_irq
 .text.dev_get_timeID
                0x00411a04       0x10 ./src/sysdev/time/dev_time.o
                0x00411a04                dev_get_timeID
 .text.sys_get_systick
                0x00411a14       0x18 ./src/sysdev/time/dev_time.o
                0x00411a14                sys_get_systick
 .text.dev_querry_time
                0x00411a2c       0x24 ./src/sysdev/time/dev_time.o
                0x00411a2c                dev_querry_time
 .text.dev_spimaster_open
                0x00411a50       0x48 ./src/sysdev/spi/dev_spimaster.o
                0x00411a50                dev_spimaster_open
 .text.dev_spimaster_write
                0x00411a98       0x5c ./src/sysdev/spi/dev_spimaster.o
                0x00411a98                dev_spimaster_write
 .text.dev_spimaster_transceive
                0x00411af4       0x64 ./src/sysdev/spi/dev_spimaster.o
                0x00411af4                dev_spimaster_transceive
 .text.JudgeTime
                0x00411b58       0xb8 ./src/sysdev/rtc/dev_rtc.o
 .text.SetTimeAndAlarm
                0x00411c10       0xf0 ./src/sysdev/rtc/dev_rtc.o
 .text.dev_rtc_open
                0x00411d00       0x14 ./src/sysdev/rtc/dev_rtc.o
                0x00411d00                dev_rtc_open
 .text.ddi_sys_get_time
                0x00411d14       0xb8 ./src/sysdev/rtc/dev_rtc.o
                0x00411d14                ddi_sys_get_time
 .text.ddi_sys_set_time
                0x00411dcc       0x14 ./src/sysdev/rtc/dev_rtc.o
                0x00411dcc                ddi_sys_set_time
 .text.ddi_sys_set_alarm
                0x00411de0       0x14 ./src/sysdev/rtc/dev_rtc.o
                0x00411de0                ddi_sys_set_alarm
 .text.RTC_init_first
                0x00411df4       0x60 ./src/sysdev/rtc/dev_rtc.o
                0x00411df4                RTC_init_first
 .text.dev_gpio_open
                0x00411e54       0x74 ./src/sysdev/gpio/dev_gpio.o
                0x00411e54                dev_gpio_open
 .text.dev_gpio_close
                0x00411ec8       0x28 ./src/sysdev/gpio/dev_gpio.o
                0x00411ec8                dev_gpio_close
 .text.dev_gpio_read
                0x00411ef0       0x1c ./src/sysdev/gpio/dev_gpio.o
                0x00411ef0                dev_gpio_read
 .text.dev_gpio_write
                0x00411f0c       0x30 ./src/sysdev/gpio/dev_gpio.o
                0x00411f0c                dev_gpio_write
 .text.dev_flash_read
                0x00411f3c       0x54 ./src/sysdev/flash/dev_flash.o
                0x00411f3c                dev_flash_read
 .text.dev_flash_write
                0x00411f90       0x44 ./src/sysdev/flash/dev_flash.o
                0x00411f90                dev_flash_write
 .text.dev_flash_erase
                0x00411fd4       0x2c ./src/sysdev/flash/dev_flash.o
                0x00411fd4                dev_flash_erase
 .text.dev_flash_write_byte
                0x00412000       0x7c ./src/sysdev/flash/dev_flash.o
                0x00412000                dev_flash_write_byte
 .text.dev_adc_open
                0x0041207c       0x18 ./src/sysdev/adc/dev_adc.o
                0x0041207c                dev_adc_open
 .text.dev_adc_start
                0x00412094       0x1c ./src/sysdev/adc/dev_adc.o
                0x00412094                dev_adc_start
 .text.adc_read
                0x004120b0       0x44 ./src/sysdev/adc/dev_adc.o
                0x004120b0                adc_read
 .text.dev_adc_value
                0x004120f4       0x54 ./src/sysdev/adc/dev_adc.o
                0x004120f4                dev_adc_value
 .text.USB_SoftReset
                0x00412148       0x30 ./src/sysbus/usb/drv_usb.o
                0x00412148                USB_SoftReset
 .text.USB_Connect
                0x00412178       0x10 ./src/sysbus/usb/drv_usb.o
                0x00412178                USB_Connect
 .text.USB_DisConnect
                0x00412188       0x18 ./src/sysbus/usb/drv_usb.o
                0x00412188                USB_DisConnect
 .text.usb_init
                0x004121a0       0xa4 ./src/sysbus/usb/drv_usb.o
                0x004121a0                usb_init
 .text.usb_deinit
                0x00412244       0x1c ./src/sysbus/usb/drv_usb.o
                0x00412244                usb_deinit
 .text.usb_connection_status
                0x00412260        0xc ./src/sysbus/usb/drv_usb.o
                0x00412260                usb_connection_status
 .text.usb_get_attach_status
                0x0041226c        0xc ./src/sysbus/usb/drv_usb.o
                0x0041226c                usb_get_attach_status
 .text.read_ep_buf
                0x00412278       0x1a ./src/sysbus/usb/drv_usb.o
                0x00412278                read_ep_buf
 .text.write_ep_buf
                0x00412292       0x1a ./src/sysbus/usb/drv_usb.o
                0x00412292                write_ep_buf
 .text.SetFIFO_Addr
                0x004122ac       0x48 ./src/sysbus/usb/drv_usb.o
                0x004122ac                SetFIFO_Addr
 .text.ClearRx  0x004122f4       0x18 ./src/sysbus/usb/drv_usb.o
                0x004122f4                ClearRx
 .text.ClearRx2
                0x0041230c       0x24 ./src/sysbus/usb/drv_usb.o
                0x0041230c                ClearRx2
 .text.SetTx    0x00412330       0x10 ./src/sysbus/usb/drv_usb.o
                0x00412330                SetTx
 .text.USBDev_SetTxSize
                0x00412340       0x14 ./src/sysbus/usb/drv_usb.o
                0x00412340                USBDev_SetTxSize
 .text.USBDev_Data_BulkIn
                0x00412354       0x98 ./src/sysbus/usb/drv_usb.o
                0x00412354                USBDev_Data_BulkIn
 .text.write_ep0_buf_notEnd
                0x004123ec       0x30 ./src/sysbus/usb/drv_usb.o
                0x004123ec                write_ep0_buf_notEnd
 .text.usb_send_buffer
                0x0041241c       0x58 ./src/sysbus/usb/drv_usb.o
                0x0041241c                usb_send_buffer
 .text.usb_receive_data
                0x00412474       0x74 ./src/sysbus/usb/drv_usb.o
                0x00412474                usb_receive_data
 .text.usb_get_left_len
                0x004124e8        0xc ./src/sysbus/usb/drv_usb.o
                0x004124e8                usb_get_left_len
 .text.usb_set_left_len
                0x004124f4        0xc ./src/sysbus/usb/drv_usb.o
                0x004124f4                usb_set_left_len
 .text.usb_get_left_buf
                0x00412500        0x8 ./src/sysbus/usb/drv_usb.o
                0x00412500                usb_get_left_buf
 .text.usb_enable_rcv
                0x00412508       0x10 ./src/sysbus/usb/drv_usb.o
                0x00412508                usb_enable_rcv
 .text.USBDev_ReceiveData
                0x00412518       0x64 ./src/sysbus/usb/drv_usb.o
                0x00412518                USBDev_ReceiveData
 .text.usbEp0Tx
                0x0041257c       0x34 ./src/sysbus/usb/drv_usb.o
                0x0041257c                usbEp0Tx
 .text.write_ep0_buf_long
                0x004125b0       0x7c ./src/sysbus/usb/drv_usb.o
                0x004125b0                write_ep0_buf_long
 .text.USBDev_EP0_SendStall
                0x0041262c       0x10 ./src/sysbus/usb/drv_usb.o
                0x0041262c                USBDev_EP0_SendStall
 .text.USBDev_BusReset
                0x0041263c       0x98 ./src/sysbus/usb/drv_usb.o
                0x0041263c                USBDev_BusReset
 .text.usb_get_descriptor
                0x004126d4       0x8c ./src/sysbus/usb/drv_usb.o
                0x004126d4                usb_get_descriptor
 .text.usb_set_address
                0x00412760       0x18 ./src/sysbus/usb/drv_usb.o
                0x00412760                usb_set_address
 .text.usb_get_line_coding
                0x00412778       0x20 ./src/sysbus/usb/drv_usb.o
                0x00412778                usb_get_line_coding
 .text.GetUSBDevStatus
                0x00412798       0x3c ./src/sysbus/usb/drv_usb.o
                0x00412798                GetUSBDevStatus
 .text.usb_endpoint0_handler
                0x004127d4       0xcc ./src/sysbus/usb/drv_usb.o
                0x004127d4                usb_endpoint0_handler
 .text.usb_endpoint0_isr
                0x004128a0       0x50 ./src/sysbus/usb/drv_usb.o
                0x004128a0                usb_endpoint0_isr
 .text.usb_isr  0x004128f0       0xe4 ./src/sysbus/usb/drv_usb.o
                0x004128f0                usb_isr
 .text.UartInit
                0x004129d4      0x138 ./src/sysbus/uart/UART.o
                0x004129d4                UartInit
 .text.UartDeinit
                0x00412b0c       0x24 ./src/sysbus/uart/UART.o
                0x00412b0c                UartDeinit
 .text.UARTSendByte
                0x00412b30       0x24 ./src/sysbus/uart/UART.o
                0x00412b30                UARTSendByte
 .text.UartWriteBytes
                0x00412b54       0x50 ./src/sysbus/uart/UART.o
                0x00412b54                UartWriteBytes
 .text.UARTRecvByte
                0x00412ba4       0x44 ./src/sysbus/uart/UART.o
                0x00412ba4                UARTRecvByte
 .text.UartReadBytes
                0x00412be8       0x4c ./src/sysbus/uart/UART.o
                0x00412be8                UartReadBytes
 .text.UartFlush
                0x00412c34       0x24 ./src/sysbus/uart/UART.o
                0x00412c34                UartFlush
 .text.uart0_interrupt_isr
                0x00412c58       0xa4 ./src/sysbus/uart/UART.o
                0x00412c58                uart0_interrupt_isr
 .text.uart1_interrupt_isr
                0x00412cfc       0x40 ./src/sysbus/uart/UART.o
                0x00412cfc                uart1_interrupt_isr
 .text.is_uart_empty
                0x00412d3c       0x28 ./src/sysbus/uart/UART.o
                0x00412d3c                is_uart_empty
 .text.SpiParaCheck
                0x00412d64       0x24 ./src/sysbus/spi/SPI_MASTER.o
                0x00412d64                SpiParaCheck
 .text.SpiMasterInit
                0x00412d88       0xc0 ./src/sysbus/spi/SPI_MASTER.o
                0x00412d88                SpiMasterInit
 .text.SpiMasterConfig
                0x00412e48       0x18 ./src/sysbus/spi/SPI_MASTER.o
                0x00412e48                SpiMasterConfig
 .text.SpiMasterWriteBytes
                0x00412e60       0x3c ./src/sysbus/spi/SPI_MASTER.o
                0x00412e60                SpiMasterWriteBytes
 .text.SpiMasterTransceiveBytes
                0x00412e9c       0x40 ./src/sysbus/spi/SPI_MASTER.o
                0x00412e9c                SpiMasterTransceiveBytes
 .text.gpioSetResumeType
                0x00412edc       0x44 ./src/sysbus/gpio/gpio.o
                0x00412edc                gpioSetResumeType
 .text.gpioclrResumeType
                0x00412f20       0x30 ./src/sysbus/gpio/gpio.o
                0x00412f20                gpioclrResumeType
 .text.GPIO_Init
                0x00412f50      0x11c ./src/sysbus/gpio/gpio.o
                0x00412f50                GPIO_Init
 .text.GPIO_WriteBit
                0x0041306c       0xf4 ./src/sysbus/gpio/gpio.o
                0x0041306c                GPIO_WriteBit
 .text.GPIO_SetBits
                0x00413160       0xdc ./src/sysbus/gpio/gpio.o
                0x00413160                GPIO_SetBits
 .text.GPIO_ResetBits
                0x0041323c       0xd4 ./src/sysbus/gpio/gpio.o
                0x0041323c                GPIO_ResetBits
 .text.GPIO_ReadBit
                0x00413310       0xc8 ./src/sysbus/gpio/gpio.o
                0x00413310                GPIO_ReadBit
 .text.ReadBigInt
                0x004133d8       0x1c ./src/security/security_common/convertdata.o
 .text.InputPK  0x004133f4       0xa0 ./src/security/security_common/convertdata.o
                0x004133f4                InputPK
 .text.secommon_memset
                0x00413494       0x10 ./src/security/security_common/security_common.o
                0x00413494                secommon_memset
 .text.secommon_strcpy
                0x004134a4       0x10 ./src/security/security_common/security_common.o
                0x004134a4                secommon_strcpy
 .text.dev_detect_getattackstate
                0x004134b4       0x10 ./src/security/secmgr/detect.o
                0x004134b4                dev_detect_getattackstate
 .text.dev_detect_clearattack
                0x004134c4       0x10 ./src/security/secmgr/detect.o
                0x004134c4                dev_detect_clearattack
 .text.dev_detect_configdetect
                0x004134d4       0x10 ./src/security/secmgr/detect.o
                0x004134d4                dev_detect_configdetect
 .text.dev_detect_configcheck
                0x004134e4       0x10 ./src/security/secmgr/detect.o
                0x004134e4                dev_detect_configcheck
 .text.dev_detect_getcpuid
                0x004134f4       0x10 ./src/security/secmgr/detect.o
                0x004134f4                dev_detect_getcpuid
 .text.dev_detect_writemmk
                0x00413504       0x10 ./src/security/secmgr/detect.o
                0x00413504                dev_detect_writemmk
 .text.dev_detect_readmmk
                0x00413514       0x10 ./src/security/secmgr/detect.o
                0x00413514                dev_detect_readmmk
 .text.dev_detect_erasemmk
                0x00413524       0x10 ./src/security/secmgr/detect.o
                0x00413524                dev_detect_erasemmk
 .text.cmd_unlock_process
                0x00413534       0x44 ./src/security/app/cmd_proc.o
                0x00413534                cmd_unlock_process
 .text.cmd_ex_auth_process
                0x00413578      0x1d4 ./src/security/app/cmd_proc.o
                0x00413578                cmd_ex_auth_process
 .text.cmd_ex_verify_authkey_process
                0x0041374c      0x1f4 ./src/security/app/cmd_proc.o
                0x0041374c                cmd_ex_verify_authkey_process
 .text.protocol_cmd_proc_entry
                0x00413940       0x4c ./src/security/app/cmd_proc.o
                0x00413940                protocol_cmd_proc_entry
 .text.read_cpu_id
                0x0041398c       0x2c ./src/security/app/ex_func.o
                0x0041398c                read_cpu_id
 .text.read_flash_id
                0x004139b8       0x18 ./src/security/app/ex_func.o
                0x004139b8                read_flash_id
 .text.check_sn_if_exist
                0x004139d0       0x2c ./src/security/app/ex_func.o
                0x004139d0                check_sn_if_exist
 .text.dev_sys_timer_get_id
                0x004139fc       0x14 ./src/security/app/ex_func.o
                0x004139fc                dev_sys_timer_get_id
 .text.dev_sys_timer_query
                0x00413a10       0x24 ./src/security/app/ex_func.o
                0x00413a10                dev_sys_timer_query
 .text.view_fw_version
                0x00413a34       0x98 ./src/security/app/ex_func.o
                0x00413a34                view_fw_version
 .text.padding_pk_info
                0x00413acc       0x5c ./src/security/app/file_auth.o
 .text.read_enhance_pksn
                0x00413b28       0x90 ./src/security/app/file_auth.o
                0x00413b28                read_enhance_pksn
 .text.pci_read_nand
                0x00413bb8       0x10 ./src/security/app/file_opt.o
                0x00413bb8                pci_read_nand
 .text.sdk_lcd_clear_rect
                0x00413bc8       0x1c ./src/security/app/pci_func.o
                0x00413bc8                sdk_lcd_clear_rect
 .text.sdk_lcd_clear_row
                0x00413be4       0x38 ./src/security/app/pci_func.o
                0x00413be4                sdk_lcd_clear_row
 .text.dev_lcd_fill_row_ram
                0x00413c1c       0x18 ./src/security/app/pci_func.o
                0x00413c1c                dev_lcd_fill_row_ram
 .text.dev_lcd_clear_row_ram
                0x00413c34       0x14 ./src/security/app/pci_func.o
                0x00413c34                dev_lcd_clear_row_ram
 .text.TestPlayOkSound
                0x00413c48       0x20 ./src/security/app/pci_func.o
                0x00413c48                TestPlayOkSound
 .text.GetKeyValue
                0x00413c68       0x8c ./src/security/app/pci_func.o
                0x00413c68                GetKeyValue
 .text.pcitest_protocol_parse
                0x00413cf4      0x1e0 ./src/security/app/protocol.o
                0x00413cf4                pcitest_protocol_parse
 .text.pcitest_protocol_package_send
                0x00413ed4       0xbc ./src/security/app/protocol.o
                0x00413ed4                pcitest_protocol_package_send
 .text.pcitest_protocol_proess_flow
                0x00413f90       0x38 ./src/security/app/protocol.o
                0x00413f90                pcitest_protocol_proess_flow
 .text.pcitest_protocol_clear_buf
                0x00413fc8       0x30 ./src/security/app/protocol.o
                0x00413fc8                pcitest_protocol_clear_buf
 .text.pcitest_protocol_start_prompt
                0x00413ff8       0x90 ./src/security/app/protocol.o
                0x00413ff8                pcitest_protocol_start_prompt
 .text.covert_err_code
                0x00414088       0x80 ./src/security/app/protocol.o
                0x00414088                covert_err_code
 .text.pcitest_protocol_result_prompt
                0x00414108      0x108 ./src/security/app/protocol.o
                0x00414108                pcitest_protocol_result_prompt
 .text.protocol_handle_init
                0x00414210       0x68 ./src/security/app/protocol.o
                0x00414210                protocol_handle_init
 .text.protocol_handle_exit
                0x00414278       0x90 ./src/security/app/protocol.o
                0x00414278                protocol_handle_exit
 .text.protocol_handle_Acknowledge
                0x00414308       0x74 ./src/security/app/protocol.o
                0x00414308                protocol_handle_Acknowledge
 .text.get_hw_serialno
                0x0041437c       0x60 ./src/security/app/rootkey.o
                0x0041437c                get_hw_serialno
 .text.pci_get_random_number
                0x004143dc       0x1c ./src/security/app/rootkey.o
                0x004143dc                pci_get_random_number
 .text.des_double
                0x004143f8       0x34 ./src/security/app/rootkey.o
                0x004143f8                des_double
 .text.des_triple
                0x0041442c       0x3c ./src/security/app/rootkey.o
                0x0041442c                des_triple
 .text.pci_read_uniq_key
                0x00414468       0x78 ./src/security/app/rootkey.o
                0x00414468                pci_read_uniq_key
 .text.pci_backup_root_key
                0x004144e0       0x68 ./src/security/app/rootkey.o
                0x004144e0                pci_backup_root_key
 .text.pci_establish_root_key
                0x00414548       0x64 ./src/security/app/rootkey.o
                0x00414548                pci_establish_root_key
 .text.pci_check_rootkey_valid
                0x004145ac       0x74 ./src/security/app/rootkey.o
                0x004145ac                pci_check_rootkey_valid
 .text.pci_restore_root_key
                0x00414620       0xd4 ./src/security/app/rootkey.o
                0x00414620                pci_restore_root_key
 .text.pci_check_mmk_bak
                0x004146f4       0xcc ./src/security/app/rootkey.o
                0x004146f4                pci_check_mmk_bak
 .text.pci_modify_bakmmk
                0x004147c0      0x114 ./src/security/app/rootkey.o
                0x004147c0                pci_modify_bakmmk
 .text.erase_app_key
                0x004148d4       0x24 ./src/security/app/rootkey.o
                0x004148d4                erase_app_key
 .text.pci_check_rootkey
                0x004148f8       0x60 ./src/security/app/rootkey.o
                0x004148f8                pci_check_rootkey
 .text.Ascii2Hex
                0x00414958       0x50 ./src/security/app/sd_tamper.o
                0x00414958                Ascii2Hex
 .text.format_trigger_num
                0x004149a8       0xe8 ./src/security/app/sd_tamper.o
                0x004149a8                format_trigger_num
 .text.tamper_process_flow_reboot
                0x00414a90       0x58 ./src/security/app/sd_tamper.o
                0x00414a90                tamper_process_flow_reboot
 .text.tamper_process_flow
                0x00414ae8      0x12c ./src/security/app/sd_tamper.o
                0x00414ae8                tamper_process_flow
 .text.clear_tamper_establish_rootkey
                0x00414c14       0x1c ./src/security/app/sd_tamper.o
                0x00414c14                clear_tamper_establish_rootkey
 .text.terminal_selfcheck_background
                0x00414c30       0x24 ./src/security/app/sd_tamper.o
                0x00414c30                terminal_selfcheck_background
 .text.tamper_check
                0x00414c54       0x68 ./src/security/app/sd_tamper.o
                0x00414c54                tamper_check
 .text.terminal_tampercheck_callback
                0x00414cbc       0x10 ./src/security/app/sd_tamper.o
                0x00414cbc                terminal_tampercheck_callback
 .text.tamper_config_and_check
                0x00414ccc       0x8c ./src/security/app/sd_tamper.o
                0x00414ccc                tamper_config_and_check
 .text.get_product_mode
                0x00414d58       0x14 ./src/security/app/sd_tamper.o
                0x00414d58                get_product_mode
 .text.sec_check_config
                0x00414d6c       0x30 ./src/security/app/sd_tamper.o
                0x00414d6c                sec_check_config
 .text.display_check_err
                0x00414d9c       0xa0 ./src/security/app/sd_tamper.o
                0x00414d9c                display_check_err
 .text.security_init
                0x00414e3c       0x40 ./src/security/app/sd_tamper.o
                0x00414e3c                security_init
 .text.lib_rsa_pk_encrypt
                0x00414e7c       0x1c ./src/security/api/alg_api.o
                0x00414e7c                lib_rsa_pk_encrypt
 .text.clac_hash_value
                0x00414e98      0x108 ./src/security/api/alg_api.o
                0x00414e98                clac_hash_value
 .text.sha256   0x00414fa0       0x14 ./src/security/api/alg_api.o
                0x00414fa0                sha256
 .text.s_mem_cpy
                0x00414fb4       0x14 ./src/security/api/mem_api.o
                0x00414fb4                s_mem_cpy
 .text.s_mem_cmp
                0x00414fc8       0x20 ./src/security/api/mem_api.o
                0x00414fc8                s_mem_cmp
 .text.drv_power_check_usb_power
                0x00414fe8       0x18 ./src/moddrv/power/drv_power.o
                0x00414fe8                drv_power_check_usb_power
 .text.drv_power_get_bat_charge_status
                0x00415000       0x18 ./src/moddrv/power/drv_power.o
                0x00415000                drv_power_get_bat_charge_status
 .text.drv_power_ctrl_charge
                0x00415018       0x60 ./src/moddrv/power/drv_power.o
                0x00415018                drv_power_ctrl_charge
 .text.drv_power_control
                0x00415078       0x1c ./src/moddrv/power/drv_power.o
                0x00415078                drv_power_control
 .text.drv_power_get_batvol_init
                0x00415094       0x24 ./src/moddrv/power/drv_power.o
                0x00415094                drv_power_get_batvol_init
 .text.drv_power_get_bat_voltage
                0x004150b8       0xbc ./src/moddrv/power/drv_power.o
                0x004150b8                drv_power_get_bat_voltage
 .text.drv_charge_task
                0x00415174      0x2f8 ./src/moddrv/power/drv_power.o
                0x00415174                drv_charge_task
 .text.drv_maghead_init
                0x0041546c       0x14 ./src/moddrv/magcard/drv_magcard.o
                0x0041546c                drv_maghead_init
 .text.drv_maghead_deinit
                0x00415480        0x4 ./src/moddrv/magcard/drv_magcard.o
                0x00415480                drv_maghead_deinit
 .text.drv_maghead_check
                0x00415484       0x34 ./src/moddrv/magcard/drv_magcard.o
                0x00415484                drv_maghead_check
 .text.drv_maghead_read
                0x004154b8      0x1ec ./src/moddrv/magcard/drv_magcard.o
                0x004154b8                drv_maghead_read
 .text.mcc_adc_open
                0x004156a4       0x8c ./src/moddrv/magcard/mcc_adc.o
                0x004156a4                mcc_adc_open
 .text.mcc_adc_close
                0x00415730       0x30 ./src/moddrv/magcard/mcc_adc.o
                0x00415730                mcc_adc_close
 .text.lcd_init_gpio
                0x00415760       0x34 ./src/moddrv/lcd/drv_lcd.o
                0x00415760                lcd_init_gpio
 .text.lcd_send_command
                0x00415794       0x30 ./src/moddrv/lcd/drv_lcd.o
                0x00415794                lcd_send_command
 .text.lcd_send_data
                0x004157c4       0x34 ./src/moddrv/lcd/drv_lcd.o
                0x004157c4                lcd_send_data
 .text.lcd_send_cfgdata
                0x004157f8       0x18 ./src/moddrv/lcd/drv_lcd.o
                0x004157f8                lcd_send_cfgdata
 .text.lcd_contrast_adjust
                0x00415810       0x28 ./src/moddrv/lcd/drv_lcd.o
                0x00415810                lcd_contrast_adjust
 .text.lcd_initial_st7567
                0x00415838       0xa8 ./src/moddrv/lcd/drv_lcd.o
                0x00415838                lcd_initial_st7567
 .text.lcd_initial_st75160
                0x004158e0      0x110 ./src/moddrv/lcd/drv_lcd.o
                0x004158e0                lcd_initial_st75160
 .text.lcd_deinit_st75160
                0x004159f0       0x34 ./src/moddrv/lcd/drv_lcd.o
                0x004159f0                lcd_deinit_st75160
 .text.lcd_address_st7567
                0x00415a24       0x2c ./src/moddrv/lcd/drv_lcd.o
                0x00415a24                lcd_address_st7567
 .text.lcd_address_st75160
                0x00415a50       0x44 ./src/moddrv/lcd/drv_lcd.o
                0x00415a50                lcd_address_st75160
 .text.drv_set_lcd_ram_addr
                0x00415a94       0x2c ./src/moddrv/lcd/drv_lcd.o
                0x00415a94                drv_set_lcd_ram_addr
 .text.lcd_clear_screen
                0x00415ac0       0x48 ./src/moddrv/lcd/drv_lcd.o
                0x00415ac0                lcd_clear_screen
 .text.drv_send_data_byte
                0x00415b08       0x14 ./src/moddrv/lcd/drv_lcd.o
                0x00415b08                drv_send_data_byte
 .text.lcd_backlight_ctl
                0x00415b1c       0x1c ./src/moddrv/lcd/drv_lcd.o
                0x00415b1c                lcd_backlight_ctl
 .text.recurbinary
                0x00415b38       0x3c ./src/moddrv/lcd/drv_lcd_font_data.o
 .text.get_hz_count
                0x00415b74       0x80 ./src/moddrv/lcd/drv_lcd_font_data.o
                0x00415b74                get_hz_count
 .text.drv_lcd_find_dot_data
                0x00415bf4       0x94 ./src/moddrv/lcd/drv_lcd_font_data.o
                0x00415bf4                drv_lcd_find_dot_data
 .text.drv_key_row_init
                0x00415c88       0x4c ./src/moddrv/keyboard/drv_key.o
 .text.drv_key_row_output
                0x00415cd4       0x48 ./src/moddrv/keyboard/drv_key.o
 .text.drv_key_init
                0x00415d1c       0x3c ./src/moddrv/keyboard/drv_key.o
                0x00415d1c                drv_key_init
 .text.drv_key_deinit
                0x00415d58       0x30 ./src/moddrv/keyboard/drv_key.o
                0x00415d58                drv_key_deinit
 .text.drv_pwr_key_scan
                0x00415d88       0x34 ./src/moddrv/keyboard/drv_key.o
                0x00415d88                drv_pwr_key_scan
 .text.drv_key_scan
                0x00415dbc       0x8c ./src/moddrv/keyboard/drv_key.o
                0x00415dbc                drv_key_scan
 .text.drv_key_sleep
                0x00415e48       0x40 ./src/moddrv/keyboard/drv_key.o
                0x00415e48                drv_key_sleep
 .text.dev_slice_isr
                0x00415e88       0x98 ./src/moddrv/beep/drv_beep.o
                0x00415e88                dev_slice_isr
 .text.pwm0Waveform
                0x00415f20       0x18 ./src/moddrv/beep/drv_beep.o
                0x00415f20                pwm0Waveform
 .text.pwm0WaveSetduty
                0x00415f38       0x1c ./src/moddrv/beep/drv_beep.o
                0x00415f38                pwm0WaveSetduty
 .text.pwm0Disable
                0x00415f54       0x28 ./src/moddrv/beep/drv_beep.o
                0x00415f54                pwm0Disable
 .text.dev_slice_init
                0x00415f7c       0x6c ./src/moddrv/beep/drv_beep.o
                0x00415f7c                dev_slice_init
 .text.dev_slice_add_task
                0x00415fe8       0x60 ./src/moddrv/beep/drv_beep.o
                0x00415fe8                dev_slice_add_task
 .text.dev_slice_deinit
                0x00416048       0x28 ./src/moddrv/beep/drv_beep.o
                0x00416048                dev_slice_deinit
 .text.dev_usb_power
                0x00416070       0x10 ./src/moddev/power/dev_power.o
                0x00416070                dev_usb_power
 .text.dev_power_batvol_stage
                0x00416080       0x34 ./src/moddev/power/dev_power.o
                0x00416080                dev_power_batvol_stage
 .text.dev_power_off
                0x004160b4       0x94 ./src/moddev/power/dev_power.o
                0x004160b4                dev_power_off
 .text.dev_power_on
                0x00416148       0x14 ./src/moddev/power/dev_power.o
                0x00416148                dev_power_on
 .text.dev_power_init
                0x0041615c       0x8c ./src/moddev/power/dev_power.o
                0x0041615c                dev_power_init
 .text.dev_power_get_batstatus
                0x004161e8       0x2c ./src/moddev/power/dev_power.o
                0x004161e8                dev_power_get_batstatus
 .text.dev_sys_bat
                0x00416214       0x3c ./src/moddev/power/dev_power.o
                0x00416214                dev_sys_bat
 .text.dev_power_stage
                0x00416250       0xe0 ./src/moddev/power/dev_power.o
                0x00416250                dev_power_stage
 .text.dev_power_manage_task
                0x00416330       0x18 ./src/moddev/power/dev_power.o
                0x00416330                dev_power_manage_task
 .text.dis_battery_ram
                0x00416348       0x90 ./src/moddev/power/dev_power.o
                0x00416348                dis_battery_ram
 .text.dis_battery_show
                0x004163d8       0xd0 ./src/moddev/power/dev_power.o
                0x004163d8                dis_battery_show
 .text.down_show_bat_logo
                0x004164a8       0x58 ./src/moddev/power/dev_power.o
                0x004164a8                down_show_bat_logo
 .text.check_multi_key
                0x00416500      0x104 ./src/moddev/power/dev_power.o
                0x00416500                check_multi_key
 .text.show_bat_charge
                0x00416604       0x74 ./src/moddev/power/dev_power.o
                0x00416604                show_bat_charge
 .text.dev_power_sleep
                0x00416678       0x98 ./src/moddev/power/dev_power.o
                0x00416678                dev_power_sleep
 .text.ddi_mag_open
                0x00416710       0x10 ./src/moddev/magcard/ddi_magcard.o
                0x00416710                ddi_mag_open
 .text.ddi_mag_close
                0x00416720       0x10 ./src/moddev/magcard/ddi_magcard.o
                0x00416720                ddi_mag_close
 .text.ddi_mag_read
                0x00416730      0x178 ./src/moddev/magcard/ddi_magcard.o
                0x00416730                ddi_mag_read
 .text.ddi_mag_clear
                0x004168a8       0x44 ./src/moddev/magcard/ddi_magcard.o
                0x004168a8                ddi_mag_clear
 .text.ddi_mag_ioctl
                0x004168ec       0x14 ./src/moddev/magcard/ddi_magcard.o
                0x004168ec                ddi_mag_ioctl
 .text.dev_maghead_open
                0x00416900       0x28 ./src/moddev/magcard/dev_magcard.o
                0x00416900                dev_maghead_open
 .text.dev_maghead_close
                0x00416928       0x28 ./src/moddev/magcard/dev_magcard.o
                0x00416928                dev_maghead_close
 .text.dev_maghead_read
                0x00416950       0x28 ./src/moddev/magcard/dev_magcard.o
                0x00416950                dev_maghead_read
 .text.dev_maghead_check
                0x00416978       0x1c ./src/moddev/magcard/dev_magcard.o
                0x00416978                dev_maghead_check
 .text.dev_maghead_ioctl
                0x00416994       0x44 ./src/moddev/magcard/dev_magcard.o
                0x00416994                dev_maghead_ioctl
 .text.magcard_is_open
                0x004169d8       0x10 ./src/moddev/magcard/dev_magcard.o
                0x004169d8                magcard_is_open
 .text.ddi_led_open
                0x004169e8       0x20 ./src/moddev/led/ddi_led.o
                0x004169e8                ddi_led_open
 .text.ddi_led_close
                0x00416a08       0x14 ./src/moddev/led/ddi_led.o
                0x00416a08                ddi_led_close
 .text.ddi_led_sta_set
                0x00416a1c       0x20 ./src/moddev/led/ddi_led.o
                0x00416a1c                ddi_led_sta_set
 .text.ddi_led_ioctl
                0x00416a3c        0x4 ./src/moddev/led/ddi_led.o
                0x00416a3c                ddi_led_ioctl
 .text.font_get_dot
                0x00416a40       0xdc ./src/moddev/lcd/dev_lcd.o
                0x00416a40                font_get_dot
 .text.font_get_str_wh
                0x00416b1c       0x58 ./src/moddev/lcd/dev_lcd.o
                0x00416b1c                font_get_str_wh
 .text.dev_lcd_open
                0x00416b74       0xac ./src/moddev/lcd/dev_lcd.o
                0x00416b74                dev_lcd_open
 .text.dev_lcd_close
                0x00416c20       0x28 ./src/moddev/lcd/dev_lcd.o
                0x00416c20                dev_lcd_close
 .text.dev_lcd_brush_screen
                0x00416c48       0x4c ./src/moddev/lcd/dev_lcd.o
                0x00416c48                dev_lcd_brush_screen
 .text.dev_lcd_clear_ram
                0x00416c94       0x40 ./src/moddev/lcd/dev_lcd.o
                0x00416c94                dev_lcd_clear_ram
 .text.dev_lcd_clear_screen
                0x00416cd4       0x20 ./src/moddev/lcd/dev_lcd.o
                0x00416cd4                dev_lcd_clear_screen
 .text.Set_pixel
                0x00416cf4       0x74 ./src/moddev/lcd/dev_lcd.o
                0x00416cf4                Set_pixel
 .text.Clear_pixel
                0x00416d68       0x78 ./src/moddev/lcd/dev_lcd.o
                0x00416d68                Clear_pixel
 .text.dev_lcd_set_pixel
                0x00416de0       0x28 ./src/moddev/lcd/dev_lcd.o
                0x00416de0                dev_lcd_set_pixel
 .text.dev_lcd_clear_at
                0x00416e08       0x40 ./src/moddev/lcd/dev_lcd.o
                0x00416e08                dev_lcd_clear_at
 .text.Set_display_ram
                0x00416e48      0x1c4 ./src/moddev/lcd/dev_lcd.o
                0x00416e48                Set_display_ram
 .text.dev_lcd_v_line
                0x0041700c       0x34 ./src/moddev/lcd/dev_lcd.o
                0x0041700c                dev_lcd_v_line
 .text.dev_lcd_line_ram
                0x00417040       0xbc ./src/moddev/lcd/dev_lcd.o
 .text.dev_lcd_brush_chg
                0x004170fc      0x128 ./src/moddev/lcd/dev_lcd.o
                0x004170fc                dev_lcd_brush_chg
 .text.dev_lcd_fill_rectangle
                0x00417224       0x4c ./src/moddev/lcd/dev_lcd.o
                0x00417224                dev_lcd_fill_rectangle
 .text.dev_lcd_get_str_dot_len
                0x00417270       0x6c ./src/moddev/lcd/dev_lcd.o
                0x00417270                dev_lcd_get_str_dot_len
 .text.ddi_lcd_open
                0x004172dc       0x10 ./src/moddev/lcd/dev_lcd.o
                0x004172dc                ddi_lcd_open
 .text.ddi_lcd_close
                0x004172ec       0x10 ./src/moddev/lcd/dev_lcd.o
                0x004172ec                ddi_lcd_close
 .text.ddi_lcd_fill_rect
                0x004172fc       0x3c ./src/moddev/lcd/dev_lcd.o
                0x004172fc                ddi_lcd_fill_rect
 .text.ddi_lcd_clear_rect
                0x00417338       0xb4 ./src/moddev/lcd/dev_lcd.o
                0x00417338                ddi_lcd_clear_rect
 .text.ddi_lcd_clear_rect_ext
                0x004173ec       0x1c ./src/moddev/lcd/dev_lcd.o
                0x004173ec                ddi_lcd_clear_rect_ext
 .text.ddi_lcd_clear_row
                0x00417408       0x50 ./src/moddev/lcd/dev_lcd.o
                0x00417408                ddi_lcd_clear_row
 .text.ddi_lcd_show_text
                0x00417458      0x11c ./src/moddev/lcd/dev_lcd.o
                0x00417458                ddi_lcd_show_text
 .text.ddi_lcd_show_picture
                0x00417574      0x104 ./src/moddev/lcd/dev_lcd.o
                0x00417574                ddi_lcd_show_picture
 .text.ddi_lcd_set_ram_pixel
                0x00417678       0x2c ./src/moddev/lcd/dev_lcd.o
                0x00417678                ddi_lcd_set_ram_pixel
 .text.ddi_lcd_show_pixel
                0x004176a4       0x58 ./src/moddev/lcd/dev_lcd.o
                0x004176a4                ddi_lcd_show_pixel
 .text.ddi_lcd_show_line
                0x004176fc       0x3c ./src/moddev/lcd/dev_lcd.o
                0x004176fc                ddi_lcd_show_line
 .text.ddi_lcd_show_rect
                0x00417738       0x7c ./src/moddev/lcd/dev_lcd.o
                0x00417738                ddi_lcd_show_rect
 .text.ddi_lcd_extract_rect
                0x004177b4      0x134 ./src/moddev/lcd/dev_lcd.o
                0x004177b4                ddi_lcd_extract_rect
 .text.ddi_lcd_show_picture_file
                0x004178e8        0x4 ./src/moddev/lcd/dev_lcd.o
                0x004178e8                ddi_lcd_show_picture_file
 .text.ddi_lcd_ioctl
                0x004178ec      0x190 ./src/moddev/lcd/dev_lcd.o
                0x004178ec                ddi_lcd_ioctl
 .text.ddi_lcd_show_text_ext
                0x00417a7c      0x10c ./src/moddev/lcd/dev_lcd.o
                0x00417a7c                ddi_lcd_show_text_ext
 .text.ddi_lcd_brush_screen
                0x00417b88       0x14 ./src/moddev/lcd/dev_lcd.o
                0x00417b88                ddi_lcd_brush_screen
 .text.dev_lcd_keywarm
                0x00417b9c       0x70 ./src/moddev/lcd/dev_lcd.o
                0x00417b9c                dev_lcd_keywarm
 .text.dev_lcd_recdispaly
                0x00417c0c       0x48 ./src/moddev/lcd/dev_lcd.o
                0x00417c0c                dev_lcd_recdispaly
 .text.dev_key_analy
                0x00417c54       0x78 ./src/moddev/keyboard/dev_key.o
 .text.dev_key_write
                0x00417ccc       0x5c ./src/moddev/keyboard/dev_key.o
                0x00417ccc                dev_key_write
 .text.dev_key_read
                0x00417d28       0x48 ./src/moddev/keyboard/dev_key.o
                0x00417d28                dev_key_read
 .text.dev_key_power_key_clear
                0x00417d70       0x20 ./src/moddev/keyboard/dev_key.o
                0x00417d70                dev_key_power_key_clear
 .text.dev_key_task
                0x00417d90      0x12c ./src/moddev/keyboard/dev_key.o
                0x00417d90                dev_key_task
 .text.dev_key_fun_read_ext
                0x00417ebc       0x60 ./src/moddev/keyboard/dev_key.o
                0x00417ebc                dev_key_fun_read_ext
 .text.dev_key_sleep
                0x00417f1c       0x10 ./src/moddev/keyboard/dev_key.o
                0x00417f1c                dev_key_sleep
 .text.dev_key_wakeup
                0x00417f2c       0x18 ./src/moddev/keyboard/dev_key.o
                0x00417f2c                dev_key_wakeup
 .text.ddi_key_open
                0x00417f44       0x40 ./src/moddev/keyboard/dev_key.o
                0x00417f44                ddi_key_open
 .text.ddi_key_close
                0x00417f84       0x34 ./src/moddev/keyboard/dev_key.o
                0x00417f84                ddi_key_close
 .text.ddi_key_read
                0x00417fb8       0x54 ./src/moddev/keyboard/dev_key.o
                0x00417fb8                ddi_key_read
 .text.ddi_key_clear
                0x0041800c       0x14 ./src/moddev/keyboard/dev_key.o
                0x0041800c                ddi_key_clear
 .text.ddi_key_ioctl
                0x00418020        0x4 ./src/moddev/keyboard/dev_key.o
                0x00418020                ddi_key_ioctl
 .text.ddi_key_task
                0x00418024       0x30 ./src/moddev/keyboard/dev_key.o
                0x00418024                ddi_key_task
 .text.btupdate_display_status
                0x00418054      0x178 ./src/moddev/bt_update/bt_update.o
 .text.save_updatainfo
                0x004181cc      0x118 ./src/moddev/bt_update/bt_update.o
 .text.btupdate_flash_write
                0x004182e4       0x68 ./src/moddev/bt_update/bt_update.o
 .text.btupdate_flash_erase.constprop.2
                0x0041834c       0x44 ./src/moddev/bt_update/bt_update.o
 .text.AsiicToNum.constprop.3
                0x00418390       0x98 ./src/moddev/bt_update/bt_update.o
 .text.btupdate_check_crc
                0x00418428       0x48 ./src/moddev/bt_update/bt_update.o
                0x00418428                btupdate_check_crc
 .text.btupdate_check_authen
                0x00418470      0x1a4 ./src/moddev/bt_update/bt_update.o
                0x00418470                btupdate_check_authen
 .text.bt_update
                0x00418614      0x7c4 ./src/moddev/bt_update/bt_update.o
                0x00418614                bt_update
 .text.ddi_update_task
                0x00418dd8      0x19c ./src/moddev/bt_update/bt_update.o
                0x00418dd8                ddi_update_task
 .text.crc16    0x00418f74       0x34 ./src/moddev/bt_update/crc16.o
                0x00418f74                crc16
 .text.mpro_buff_clear
                0x00418fa8       0x20 ./src/moddev/bt_update/mpos_protocol.o
 .text.change_to_hex
                0x00418fc8       0x46 ./src/moddev/bt_update/mpos_protocol.o
                0x00418fc8                change_to_hex
 *fill*         0x0041900e        0x2 bebe
 .text.mpro_init
                0x00419010       0x40 ./src/moddev/bt_update/mpos_protocol.o
                0x00419010                mpro_init
 .text.mpro_send_data
                0x00419050       0x18 ./src/moddev/bt_update/mpos_protocol.o
                0x00419050                mpro_send_data
 .text.mpro_creat_packet.part.0
                0x00419068       0xbc ./src/moddev/bt_update/mpos_protocol.o
 .text.mpro_rcv_data
                0x00419124       0x9c ./src/moddev/bt_update/mpos_protocol.o
                0x00419124                mpro_rcv_data
 .text.mpro_task
                0x004191c0      0x2c4 ./src/moddev/bt_update/mpos_protocol.o
                0x004191c0                mpro_task
 .text.dev_buzzer_close
                0x00419484       0x14 ./src/moddev/beep/dev_beep.o
                0x00419484                dev_buzzer_close
 .text.dev_buzzer_open
                0x00419498       0x2c ./src/moddev/beep/dev_beep.o
                0x00419498                dev_buzzer_open
 .text.dev_buzzer_set_volume
                0x004194c4       0x18 ./src/moddev/beep/dev_beep.o
                0x004194c4                dev_buzzer_set_volume
 .text.ddi_audio_open
                0x004194dc        0x4 ./src/moddev/beep/dev_beep.o
                0x004194dc                ddi_audio_open
 .text.ddi_audio_close
                0x004194e0       0x18 ./src/moddev/beep/dev_beep.o
                0x004194e0                ddi_audio_close
 .text.ddi_audio_play
                0x004194f8        0x4 ./src/moddev/beep/dev_beep.o
                0x004194f8                ddi_audio_play
 .text.ddi_audio_stop
                0x004194fc        0x4 ./src/moddev/beep/dev_beep.o
                0x004194fc                ddi_audio_stop
 .text.ddi_audio_pause
                0x00419500        0x4 ./src/moddev/beep/dev_beep.o
                0x00419500                ddi_audio_pause
 .text.ddi_audio_replay
                0x00419504        0x4 ./src/moddev/beep/dev_beep.o
                0x00419504                ddi_audio_replay
 .text.ddi_audio_ioctl
                0x00419508       0x38 ./src/moddev/beep/dev_beep.o
                0x00419508                ddi_audio_ioctl
 .text.dev_core_task
                0x00419540       0x48 ./src/main/main.o
                0x00419540                dev_core_task
 .text.dev_core_task_init
                0x00419588       0x40 ./src/main/main.o
                0x00419588                dev_core_task_init
 .text.show_poweron_prompt
                0x004195c8       0x2c ./src/main/main.o
                0x004195c8                show_poweron_prompt
 .text.startup.main
                0x004195f4      0x254 ./src/main/main.o
                0x004195f4                main
 .text.mini_app
                0x00419848       0x4c ./src/main/test.o
                0x00419848                mini_app
 .text.BcdToAsc
                0x00419894       0x34 ./src/fun/dev_maths.o
                0x00419894                BcdToAsc
 .text.ShellSort
                0x004198c8       0x6a ./src/fun/dev_maths.o
                0x004198c8                ShellSort
 .text.str_len  0x00419932       0x10 ./src/fun/dev_maths.o
                0x00419932                str_len
 .text.str_cpy  0x00419942       0x10 ./src/fun/dev_maths.o
                0x00419942                str_cpy
 *fill*         0x00419952        0x2 bebe
 .text.calc_crc16
                0x00419954       0x4c ./src/fun/dev_maths.o
                0x00419954                calc_crc16
 .text.calc_crc32
                0x004199a0       0x30 ./src/fun/dev_maths.o
                0x004199a0                calc_crc32
 .text.CalcChecksum16
                0x004199d0       0x20 ./src/fun/dev_maths.o
                0x004199d0                CalcChecksum16
 .text.CalcChecksum
                0x004199f0       0x16 ./src/fun/dev_maths.o
                0x004199f0                CalcChecksum
 *fill*         0x00419a06        0x2 bebe
 .text.vfs_root_init
                0x00419a08       0x1c ./src/fs/fs_vs.o
                0x00419a08                vfs_root_init
 .text.ddi_vfs_open
                0x00419a24       0x74 ./src/fs/fs_vs.o
                0x00419a24                ddi_vfs_open
 .text.ddi_vfs_close
                0x00419a98       0x2c ./src/fs/fs_vs.o
                0x00419a98                ddi_vfs_close
 .text.ddi_vfs_write
                0x00419ac4       0x50 ./src/fs/fs_vs.o
                0x00419ac4                ddi_vfs_write
 .text.ddi_vfs_read
                0x00419b14       0x50 ./src/fs/fs_vs.o
                0x00419b14                ddi_vfs_read
 .text.ddi_vfs_seek
                0x00419b64       0x4c ./src/fs/fs_vs.o
                0x00419b64                ddi_vfs_seek
 .text.ddi_vfs_tell
                0x00419bb0       0x30 ./src/fs/fs_vs.o
                0x00419bb0                ddi_vfs_tell
 .text.ddi_vfs_remove
                0x00419be0       0x74 ./src/fs/fs_vs.o
                0x00419be0                ddi_vfs_remove
 .text.ddi_vfs_rename
                0x00419c54        0x4 ./src/fs/fs_vs.o
                0x00419c54                ddi_vfs_rename
 .text.ddi_vfs_access
                0x00419c58       0x38 ./src/fs/fs_vs.o
                0x00419c58                ddi_vfs_access
 .text.ddi_vfs_ioctl
                0x00419c90        0x8 ./src/fs/fs_vs.o
                0x00419c90                ddi_vfs_ioctl
 .text.DmaLliRegInit
                0x00419c98       0x1c ./src/drv/adc_dma.o
                0x00419c98                DmaLliRegInit
 .text.AdcDmaStart
                0x00419cb4       0x28 ./src/drv/adc_dma.o
                0x00419cb4                AdcDmaStart
 .text.AdcDmaStop
                0x00419cdc       0x40 ./src/drv/adc_dma.o
                0x00419cdc                AdcDmaStop
 .text.DmaInit  0x00419d1c       0x8c ./src/drv/adc_dma.o
                0x00419d1c                DmaInit
 .text.AdcInit  0x00419da8       0x64 ./src/drv/adc_dma.o
                0x00419da8                AdcInit
 .text.AdcStart
                0x00419e0c        0xc ./src/drv/adc_dma.o
                0x00419e0c                AdcStart
 .text.AdcStop  0x00419e18       0x28 ./src/drv/adc_dma.o
                0x00419e18                AdcStop
 .text.ADC_Cmd  0x00419e40       0x28 ./src/drv/adc_drv.o
                0x00419e40                ADC_Cmd
 .text.ADC_StartConv
                0x00419e68       0x10 ./src/drv/adc_drv.o
                0x00419e68                ADC_StartConv
 .text.ADC_StopConv
                0x00419e78       0x14 ./src/drv/adc_drv.o
                0x00419e78                ADC_StopConv
 .text.ADC_GetConversionValueByInterVerf
                0x00419e8c       0x8c ./src/drv/adc_drv.o
                0x00419e8c                ADC_GetConversionValueByInterVerf
 .text.ADC_GetConversionValue
                0x00419f18       0x8c ./src/drv/adc_drv.o
                0x00419f18                ADC_GetConversionValue
 .text.ADC_Get_Battery
                0x00419fa4       0x9c ./src/drv/adc_drv.o
                0x00419fa4                ADC_Get_Battery
 .text.CheckAddrType
                0x0041a040       0x28 ./src/drv/alg_drv.o
 .text.U8toU32  0x0041a068       0x6a ./src/drv/alg_drv.o
 *fill*         0x0041a0d2        0x2 bebe
 .text.U32toU8  0x0041a0d4       0x60 ./src/drv/alg_drv.o
 .text.GetRandomWord
                0x0041a134       0x24 ./src/drv/alg_drv.o
                0x0041a134                GetRandomWord
 .text.Init_Trng
                0x0041a158       0x2c ./src/drv/alg_drv.o
                0x0041a158                Init_Trng
 .text.Trng_Disable
                0x0041a184       0x1c ./src/drv/alg_drv.o
                0x0041a184                Trng_Disable
 .text.DES_EnDecrypt_2
                0x0041a1a0      0x104 ./src/drv/alg_drv.o
                0x0041a1a0                DES_EnDecrypt_2
 .text.SHA_Init_2
                0x0041a2a4       0x30 ./src/drv/alg_drv.o
                0x0041a2a4                SHA_Init_2
 .text.SHA_Update_2
                0x0041a2d4       0x64 ./src/drv/alg_drv.o
                0x0041a2d4                SHA_Update_2
 .text.SHA_Final_2
                0x0041a338       0x7c ./src/drv/alg_drv.o
                0x0041a338                SHA_Final_2
 .text.RsaPubKey_2
                0x0041a3b4      0x130 ./src/drv/alg_drv.o
                0x0041a3b4                RsaPubKey_2
 .text.RsaPrivKeyCRT_2
                0x0041a4e4      0x1cc ./src/drv/alg_drv.o
                0x0041a4e4                RsaPrivKeyCRT_2
 .text.CACHE_Init
                0x0041a6b0       0xb8 ./src/drv/cache_drv.o
                0x0041a6b0                CACHE_Init
 .text.CCM_ConfigGpio
                0x0041a768       0x64 ./src/drv/ccm_drv.o
                0x0041a768                CCM_ConfigGpio
 .text.CCM_ReadGpioData
                0x0041a7cc       0x24 ./src/drv/ccm_drv.o
                0x0041a7cc                CCM_ReadGpioData
 .text.CCM_WriteGpioData
                0x0041a7f0       0x34 ./src/drv/ccm_drv.o
                0x0041a7f0                CCM_WriteGpioData
 .text.CPM_Sleep
                0x0041a824       0x2c ./src/drv/cpm_drv.o
                0x0041a824                CPM_Sleep
 .text.cpm_set_usbphy_div
                0x0041a850       0x34 ./src/drv/cpm_drv.o
                0x0041a850                cpm_set_usbphy_div
 .text.CPM_SysClkSelect
                0x0041a884       0xf4 ./src/drv/cpm_drv.o
                0x0041a884                CPM_SysClkSelect
 .text.Clock_Out_Select
                0x0041a978       0x1c ./src/drv/cpm_drv.o
                0x0041a978                Clock_Out_Select
 .text.PMU_ISR  0x0041a994       0x18 ./src/drv/cpm_drv.o
                0x0041a994                PMU_ISR
 .text.WAKEUP_ISR
                0x0041a9ac       0x44 ./src/drv/cpm_drv.o
                0x0041a9ac                WAKEUP_ISR
 .text.CPM_eport_sleep
                0x0041a9f0       0x14 ./src/drv/cpm_drv.o
                0x0041a9f0                CPM_eport_sleep
 .text.DMA_Init
                0x0041aa04       0x5c ./src/drv/dmac_drv.o
                0x0041aa04                DMA_Init
 .text.EDMA_ISR
                0x0041aa60       0x50 ./src/drv/edma_drv.o
                0x0041aa60                EDMA_ISR
 .text.EDMA_Init
                0x0041aab0       0x14 ./src/drv/edma_drv.o
                0x0041aab0                EDMA_Init
 .text.EDMA_CHx_start
                0x0041aac4       0xc4 ./src/drv/edma_drv.o
                0x0041aac4                EDMA_CHx_start
 .text.dma_spi_enter
                0x0041ab88        0xc ./src/drv/edma_drv.o
                0x0041ab88                dma_spi_enter
 .text.dma_spi_out
                0x0041ab94        0xc ./src/drv/edma_drv.o
                0x0041ab94                dma_spi_out
 .text.EFLASH_SetWritePermission
                0x0041aba0       0x10 ./src/drv/eflash_drv.o
                0x0041aba0                EFLASH_SetWritePermission
 .text.EFLASH_ClrWritePermission
                0x0041abb0       0x10 ./src/drv/eflash_drv.o
                0x0041abb0                EFLASH_ClrWritePermission
 .text.EPORT0_8_ISR
                0x0041abc0       0x5c ./src/drv/eport_drv.o
                0x0041abc0                EPORT0_8_ISR
 .text.EPORT1_9_ISR
                0x0041ac1c       0x40 ./src/drv/eport_drv.o
                0x0041ac1c                EPORT1_9_ISR
 .text.EPORT2_10_ISR
                0x0041ac5c       0x40 ./src/drv/eport_drv.o
                0x0041ac5c                EPORT2_10_ISR
 .text.EPORT3_11_ISR
                0x0041ac9c       0x40 ./src/drv/eport_drv.o
                0x0041ac9c                EPORT3_11_ISR
 .text.EPORT4_12_ISR
                0x0041acdc       0x40 ./src/drv/eport_drv.o
                0x0041acdc                EPORT4_12_ISR
 .text.EPORT5_13_ISR
                0x0041ad1c       0x40 ./src/drv/eport_drv.o
                0x0041ad1c                EPORT5_13_ISR
 .text.EPORT6_14_ISR
                0x0041ad5c       0x48 ./src/drv/eport_drv.o
                0x0041ad5c                EPORT6_14_ISR
 .text.EPORT7_15_ISR
                0x0041ada4       0x44 ./src/drv/eport_drv.o
                0x0041ada4                EPORT7_15_ISR
 .text.EPORT_ConfigGpio
                0x0041ade8       0xb4 ./src/drv/eport_drv.o
                0x0041ade8                EPORT_ConfigGpio
 .text.EPORT_WriteGpioData
                0x0041ae9c       0x70 ./src/drv/eport_drv.o
                0x0041ae9c                EPORT_WriteGpioData
 .text.EPORT_ReadGpioData
                0x0041af0c       0x50 ./src/drv/eport_drv.o
                0x0041af0c                EPORT_ReadGpioData
 .text.EPORT_ITTypeConfig
                0x0041af5c      0x1a8 ./src/drv/eport_drv.o
                0x0041af5c                EPORT_ITTypeConfig
 .text.EPORT_ITConfig
                0x0041b104       0x78 ./src/drv/eport_drv.o
                0x0041b104                EPORT_ITConfig
 .text.EPORT_Pullup
                0x0041b17c       0x38 ./src/drv/eport_drv.o
                0x0041b17c                EPORT_Pullup
 .text.EPORT_IN_en
                0x0041b1b4       0x38 ./src/drv/eport_drv.o
                0x0041b1b4                EPORT_IN_en
 .text.SPI_IO_IN_en
                0x0041b1ec       0x4c ./src/drv/eport_drv.o
                0x0041b1ec                SPI_IO_IN_en
 .text.I2C_ConfigGpio
                0x0041b238       0x5c ./src/drv/i2c_drv.o
                0x0041b238                I2C_ConfigGpio
 .text.I2C_ReadGpioData
                0x0041b294       0x2c ./src/drv/i2c_drv.o
                0x0041b294                I2C_ReadGpioData
 .text.I2C_WriteGpioData
                0x0041b2c0       0x40 ./src/drv/i2c_drv.o
                0x0041b2c0                I2C_WriteGpioData
 .text.I2C_ISR  0x0041b300       0xc8 ./src/drv/i2c_drv.o
                0x0041b300                I2C_ISR
 .text.PIT32_Init
                0x0041b3c8       0x3c ./src/drv/pit32_drv.o
                0x0041b3c8                PIT32_Init
 .text.PIT32_ITConfig
                0x0041b404       0x40 ./src/drv/pit32_drv.o
                0x0041b404                PIT32_ITConfig
 .text.PIT_Init
                0x0041b444       0x40 ./src/drv/pit_drv.o
                0x0041b444                PIT_Init
 .text.PIT_ITConfig
                0x0041b484       0x40 ./src/drv/pit_drv.o
                0x0041b484                PIT_ITConfig
 .text.PWM_OutputInit
                0x0041b4c4      0x1d4 ./src/drv/pwm_drv.o
                0x0041b4c4                PWM_OutputInit
 .text.PWM_ISR  0x0041b698       0xc8 ./src/drv/pwm_drv.o
                0x0041b698                PWM_ISR
 .text.PWM_Stop
                0x0041b760       0x4c ./src/drv/pwm_drv.o
                0x0041b760                PWM_Stop
 .text.PWM_ConfigGpio
                0x0041b7ac       0x8c ./src/drv/pwm_drv.o
                0x0041b7ac                PWM_ConfigGpio
 .text.PWM_ReadGpioData
                0x0041b838       0x1c ./src/drv/pwm_drv.o
                0x0041b838                PWM_ReadGpioData
 .text.PWM_WriteGpioData
                0x0041b854       0x60 ./src/drv/pwm_drv.o
                0x0041b854                PWM_WriteGpioData
 .text.pwm_out  0x0041b8b4       0x20 ./src/drv/pwm_drv.o
                0x0041b8b4                pwm_out
 .text.soft_reset
                0x0041b8d4       0x14 ./src/drv/reset_drv.o
                0x0041b8d4                soft_reset
 .text.RTC_ISR  0x0041b8e8       0xf0 ./src/drv/rtc_drv.o
                0x0041b8e8                RTC_ISR
 .text.RTC_Init
                0x0041b9d8       0x50 ./src/drv/rtc_drv.o
                0x0041b9d8                RTC_Init
 .text.RTC_SetTime
                0x0041ba28       0x60 ./src/drv/rtc_drv.o
                0x0041ba28                RTC_SetTime
 .text.RTC_SetAlarm
                0x0041ba88       0xc0 ./src/drv/rtc_drv.o
                0x0041ba88                RTC_SetAlarm
 .text.RTC_GetTime
                0x0041bb48       0x28 ./src/drv/rtc_drv.o
                0x0041bb48                RTC_GetTime
 .text.SPI_Init
                0x0041bb70      0x134 ./src/drv/spi_drv.o
                0x0041bb70                SPI_Init
 .text.SPI_MasterSendData
                0x0041bca4       0x90 ./src/drv/spi_drv.o
                0x0041bca4                SPI_MasterSendData
 .text.SPI_MasterSend_RecvData
                0x0041bd34       0x88 ./src/drv/spi_drv.o
                0x0041bd34                SPI_MasterSend_RecvData
 .text.SPI_ConfigGpio
                0x0041bdbc       0x9c ./src/drv/spi_drv.o
                0x0041bdbc                SPI_ConfigGpio
 .text.SPI_ReadGpioData
                0x0041be58       0x54 ./src/drv/spi_drv.o
                0x0041be58                SPI_ReadGpioData
 .text.SPI_WriteGpioData
                0x0041beac       0x7c ./src/drv/spi_drv.o
                0x0041beac                SPI_WriteGpioData
 .text.TC_ISR   0x0041bf28       0x30 ./src/drv/tc_drv.o
                0x0041bf28                TC_ISR
 .text.TC_PWM_ISR
                0x0041bf58       0x24 ./src/drv/tc_drv.o
                0x0041bf58                TC_PWM_ISR
 .text.UART_ConfigGpio
                0x0041bf7c       0x28 ./src/drv/uart_drv.o
                0x0041bf7c                UART_ConfigGpio
 .text.UART_ReadGpioData
                0x0041bfa4        0xa ./src/drv/uart_drv.o
                0x0041bfa4                UART_ReadGpioData
 .text.UART_WriteGpioData
                0x0041bfae       0x1a ./src/drv/uart_drv.o
                0x0041bfae                UART_WriteGpioData
 .text.USI_ConfigGpio
                0x0041bfc8       0x58 ./src/drv/usi_drv.o
                0x0041bfc8                USI_ConfigGpio
 .text.USI_ReadGpioData
                0x0041c020       0x28 ./src/drv/usi_drv.o
                0x0041c020                USI_ReadGpioData
 .text.USI_WriteGpioData
                0x0041c048       0x3c ./src/drv/usi_drv.o
                0x0041c048                USI_WriteGpioData
 .text.WDT_Init
                0x0041c084       0x10 ./src/drv/wdt_drv.o
                0x0041c084                WDT_Init
 .text.WDT_FeedDog
                0x0041c094       0x18 ./src/drv/wdt_drv.o
                0x0041c094                WDT_FeedDog
 .text.WDT_Open
                0x0041c0ac       0x10 ./src/drv/wdt_drv.o
                0x0041c0ac                WDT_Open
 .text.WDT_Close
                0x0041c0bc       0x14 ./src/drv/wdt_drv.o
                0x0041c0bc                WDT_Close
 .text.free     0x0041c0d0       0x90 ./src/common/alloc.o
 .text.malloc   0x0041c160       0x94 ./src/common/alloc.o
 .text.malloc_free_count
                0x0041c1f4       0x44 ./src/common/alloc.o
                0x0041c1f4                malloc_free_count
 .text.malloc_used_count
                0x0041c238       0x64 ./src/common/alloc.o
                0x0041c238                malloc_used_count
 .text._k_malloc
                0x0041c29c       0x44 ./src/common/alloc.o
                0x0041c29c                _k_malloc
 .text._k_free  0x0041c2e0       0x14 ./src/common/alloc.o
                0x0041c2e0                _k_free
 .text.number   0x0041c2f4      0x168 ./src/common/debug.o
 .text.serial_putc_dev
                0x0041c45c       0x28 ./src/common/debug.o
 .text.cvt      0x0041c484      0x1ec ./src/common/debug.o
 .text.sprintf_d
                0x0041c670       0x8a ./src/common/debug.o
                0x0041c670                sprintf_d
 *fill*         0x0041c6fa        0x2 bebe
 .text.sprintf_x
                0x0041c6fc       0x30 ./src/common/debug.o
                0x0041c6fc                sprintf_x
 .text.ecvtbuf  0x0041c72c       0x14 ./src/common/debug.o
                0x0041c72c                ecvtbuf
 .text.fcvtbuf  0x0041c740       0x14 ./src/common/debug.o
                0x0041c740                fcvtbuf
 .text.vsprintf
                0x0041c754      0x8f0 ./src/common/debug.o
                0x0041c754                vsprintf
 .text.my_printf
                0x0041d044       0x64 ./src/common/debug.o
                0x0041d044                my_printf
 .text.printf_format
                0x0041d0a8       0x48 ./src/common/debug.o
                0x0041d0a8                printf_format
 .text.printf_format_16
                0x0041d0f0       0x40 ./src/common/debug.o
                0x0041d0f0                printf_format_16
 .text.sprintf  0x0041d130       0x20 ./src/common/debug.o
                0x0041d130                sprintf
 .text.assert_failed
                0x0041d150       0x18 ./src/common/debug.o
                0x0041d150                assert_failed
 .text.delayms  0x0041d168       0x24 ./src/common/delay.o
                0x0041d168                delayms
 .text.delayms_const
                0x0041d18c       0x28 ./src/common/delay.o
                0x0041d18c                delayms_const
 .text.delay    0x0041d1b4        0x2 ./src/common/delay.o
                0x0041d1b4                delay
 .text.Long2Byte
                0x0041d1b6       0x16 ./src/common/download.o
 .text.send_55aa_res
                0x0041d1cc       0x64 ./src/common/download.o
 .text.TMUverification
                0x0041d230      0x2a4 ./src/common/download.o
                0x0041d230                TMUverification
 .text.UsbDownloadHandle
                0x0041d4d4      0x9f4 ./src/common/download.o
                0x0041d4d4                UsbDownloadHandle
 .text.down_select_mode
                0x0041dec8       0xac ./src/common/download.o
                0x0041dec8                down_select_mode
 .text.DownloadTask
                0x0041df74       0x8c ./src/common/download.o
                0x0041df74                DownloadTask
 .text.download_init
                0x0041e000       0xe4 ./src/common/download.o
                0x0041e000                download_init
 .text.prase_com_cmd
                0x0041e0e4       0xc0 ./src/common/misc.o
 .text.GetBootRecoveryVer
                0x0041e1a4       0x60 ./src/common/misc.o
                0x0041e1a4                GetBootRecoveryVer
 .text.machine_code_init
                0x0041e204       0x3c ./src/common/misc.o
                0x0041e204                machine_code_init
 .text.download_machine_code
                0x0041e240       0xdc ./src/common/misc.o
                0x0041e240                download_machine_code
 .text.check_app
                0x0041e31c       0xd4 ./src/common/misc.o
                0x0041e31c                check_app
 .text.check_input_keyword
                0x0041e3f0       0xe8 ./src/common/misc.o
                0x0041e3f0                check_input_keyword
 .text.GetfileLocate
                0x0041e4d8       0x38 ./src/common/syscfg.o
 .text.replace_balacefile_data
                0x0041e510       0x24 ./src/common/syscfg.o
 .text.GetBalancefileOffset
                0x0041e534       0x9c ./src/common/syscfg.o
 .text.flash_kern_read_file_ext
                0x0041e5d0       0x7c ./src/common/syscfg.o
 .text.flash_kern_check_file_ext
                0x0041e64c       0x70 ./src/common/syscfg.o
 .text.flash_kern_write_file_ext
                0x0041e6bc      0x134 ./src/common/syscfg.o
 .text.flash_kern_write_balacefile_ext
                0x0041e7f0      0x48c ./src/common/syscfg.o
 .text.CheckContent
                0x0041ec7c       0x38 ./src/common/syscfg.o
                0x0041ec7c                CheckContent
 .text.flash_kern_read_file
                0x0041ecb4       0x50 ./src/common/syscfg.o
                0x0041ecb4                flash_kern_read_file
 .text.flash_kern_write_file
                0x0041ed04      0x140 ./src/common/syscfg.o
                0x0041ed04                flash_kern_write_file
 .text.dev_machineInfo_operation
                0x0041ee44       0xfc ./src/common/syscfg.o
 .text.dev_machineInfo_opt
                0x0041ef40       0xc8 ./src/common/syscfg.o
                0x0041ef40                dev_machineInfo_opt
 .text.ddi_write_client_info
                0x0041f008       0x24 ./src/common/syscfg.o
                0x0041f008                ddi_write_client_info
 .text.ddi_read_client_info
                0x0041f02c       0x44 ./src/common/syscfg.o
                0x0041f02c                ddi_read_client_info
 .text.flash_kern_del_file
                0x0041f070       0x70 ./src/common/syscfg.o
                0x0041f070                flash_kern_del_file
 .text.flash_vfs_tell_file
                0x0041f0e0       0x44 ./src/common/syscfg.o
                0x0041f0e0                flash_vfs_tell_file
 .text.flash_vfs_read_file
                0x0041f124       0x44 ./src/common/syscfg.o
                0x0041f124                flash_vfs_read_file
 .text.ddi_sys_langua
                0x0041f168       0xb0 ./src/common/syscfg.o
                0x0041f168                ddi_sys_langua
 .text.check_machine
                0x0041f218       0x84 ./src/common/update.o
                0x0041f218                check_machine
 .text.GetDirName
                0x0041f29c       0x78 ./src/common/update.o
                0x0041f29c                GetDirName
 .text.bios_fileauthen
                0x0041f314        0x4 ./src/common/update.o
                0x0041f314                bios_fileauthen
 .text.get_update_addr
                0x0041f318       0x54 ./src/common/update.o
                0x0041f318                get_update_addr
 .text.read_update_flag
                0x0041f36c       0x28 ./src/common/update.o
                0x0041f36c                read_update_flag
 .text.write_update_flag
                0x0041f394       0x68 ./src/common/update.o
                0x0041f394                write_update_flag
 .text.erase_update_flag
                0x0041f3fc       0x24 ./src/common/update.o
                0x0041f3fc                erase_update_flag
 .text.erase_update_area
                0x0041f420       0x14 ./src/common/update.o
                0x0041f420                erase_update_area
 .text.copy_update_data
                0x0041f434       0x70 ./src/common/update.o
                0x0041f434                copy_update_data
 .text.check_file_crc
                0x0041f4a4       0x60 ./src/common/update.o
                0x0041f4a4                check_file_crc
 .text.NOP      0x0041f504        0x2 ./src/ccore/AsmToC.o
                0x0041f504                NOP
 .text.mem_set  0x0041f506        0x2 ./src/ccore/Memory_API.o
                0x0041f506                mem_set
 .text.s_mem_set
                0x0041f508       0x12 ./src/ccore/Memory_API.o
                0x0041f508                s_mem_set
 *fill*         0x0041f51a        0x2 bebe
 .text.interrupt_setup
                0x0041f51c      0x110 ./src/ccore/interrupt.o
                0x0041f51c                interrupt_setup
 .text.interrupt_disable
                0x0041f62c       0x48 ./src/ccore/interrupt.o
                0x0041f62c                interrupt_disable
 .text          0x0041f674       0x4c ./src/ccore/interrupt_support.o
                0x0041f674                Read_PSR
                0x0041f678                Read_VBR
                0x0041f67c                Write_PSR
                0x0041f680                Write_VBR
                0x0041f684                Disable_Ints
                0x0041f68e                Enable_Ints
                0x0041f698                __memcpy
                0x0041f6ac                memcpy
 .text.DummyHandler
                0x0041f6c0        0x2 ./src/ccore/vector_rce.o
                0x0041f6c0                DummyHandler
 *fill*         0x0041f6c2        0x2 bebe
 .text.Misaligned_Access
                0x0041f6c4       0x1c ./src/ccore/vector_rce.o
                0x0041f6c4                Misaligned_Access
 .text.Access_Error
                0x0041f6e0       0x20 ./src/ccore/vector_rce.o
                0x0041f6e0                Access_Error
 .text.Illegal_Instrn
                0x0041f700       0x1c ./src/ccore/vector_rce.o
                0x0041f700                Illegal_Instrn
 .text.Breakpoint_Exception
                0x0041f71c       0x1c ./src/ccore/vector_rce.o
                0x0041f71c                Breakpoint_Exception
 .text.Unrecoverable_Error
                0x0041f738       0x1c ./src/ccore/vector_rce.o
                0x0041f738                Unrecoverable_Error
 .text.__main   0x0041f754       0x48 ./src/ccore/vector_rce.o
                0x0041f754                __main
 .text.ddi_sys_get_firmwarever
                0x0041f79c       0x90 ./src/api/dev_api.o
                0x0041f79c                ddi_sys_get_firmwarever
 .text.ddi_sys_sleep
                0x0041f82c       0x10 ./src/api/dev_api.o
                0x0041f82c                ddi_sys_sleep
 .text          0x0041f83c      0x2b0 D:\software_xqy\CCore_IDE/tool-chain/ccore-elf/lib/gcc/mcore-elf/4.6.0/c0_div\libgcc.a(_addsub_df.o)
                0x0041fa5a                __adddf3
                0x0041fa96                __subdf3
 .text          0x0041faec      0x258 D:\software_xqy\CCore_IDE/tool-chain/ccore-elf/lib/gcc/mcore-elf/4.6.0/c0_div\libgcc.a(_mul_df.o)
                0x0041faec                __muldf3
 .text          0x0041fd44      0x18c D:\software_xqy\CCore_IDE/tool-chain/ccore-elf/lib/gcc/mcore-elf/4.6.0/c0_div\libgcc.a(_div_df.o)
                0x0041fd44                __divdf3
 .text          0x0041fed0       0x48 D:\software_xqy\CCore_IDE/tool-chain/ccore-elf/lib/gcc/mcore-elf/4.6.0/c0_div\libgcc.a(_eq_df.o)
                0x0041fed0                __eqdf2
 .text          0x0041ff18       0x48 D:\software_xqy\CCore_IDE/tool-chain/ccore-elf/lib/gcc/mcore-elf/4.6.0/c0_div\libgcc.a(_ne_df.o)
                0x0041ff18                __nedf2
 .text          0x0041ff60       0x4c D:\software_xqy\CCore_IDE/tool-chain/ccore-elf/lib/gcc/mcore-elf/4.6.0/c0_div\libgcc.a(_gt_df.o)
                0x0041ff60                __gtdf2
 .text          0x0041ffac       0x48 D:\software_xqy\CCore_IDE/tool-chain/ccore-elf/lib/gcc/mcore-elf/4.6.0/c0_div\libgcc.a(_lt_df.o)
                0x0041ffac                __ltdf2
 .text          0x0041fff4       0x88 D:\software_xqy\CCore_IDE/tool-chain/ccore-elf/lib/gcc/mcore-elf/4.6.0/c0_div\libgcc.a(_si_to_df.o)
                0x0041fff4                __floatsidf
 .text          0x0042007c       0x7c D:\software_xqy\CCore_IDE/tool-chain/ccore-elf/lib/gcc/mcore-elf/4.6.0/c0_div\libgcc.a(_df_to_si.o)
                0x0042007c                __fixdfsi
 .text          0x004200f8       0x62 D:\software_xqy\CCore_IDE/tool-chain/ccore-elf/lib/gcc/mcore-elf/4.6.0/c0_div\libgcc.a(_muldi3.o)
                0x004200f8                __muldi3
 *fill*         0x0042015a        0x2 bebe
 .text          0x0042015c       0x4c D:\software_xqy\CCore_IDE/tool-chain/ccore-elf/lib/gcc/mcore-elf/4.6.0/c0_div\libgcc.a(_clzsi2.o)
                0x0042015c                __clzsi2
 .text          0x004201a8      0x1a4 D:\software_xqy\CCore_IDE/tool-chain/ccore-elf/lib/gcc/mcore-elf/4.6.0/c0_div\libgcc.a(_pack_df.o)
                0x004201a8                __pack_d
 .text          0x0042034c       0xd8 D:\software_xqy\CCore_IDE/tool-chain/ccore-elf/lib/gcc/mcore-elf/4.6.0/c0_div\libgcc.a(_unpack_df.o)
                0x0042034c                __unpack_d
 .text          0x00420424       0x96 D:\software_xqy\CCore_IDE/tool-chain/ccore-elf/lib/gcc/mcore-elf/4.6.0/c0_div\libgcc.a(_fpcmp_parts_df.o)
                0x00420424                __fpcmp_parts_d
 .text          0x004204ba       0x34 D:\software_xqy\CCore_IDE/tool-chain/ccore-elf/lib/gcc/mcore-elf/4.6.0/c0_div\libgcc.a(_lshrdi3.o)
                0x004204ba                __lshrdi3
 .text          0x004204ee       0x34 D:\software_xqy\CCore_IDE/tool-chain/ccore-elf/lib/gcc/mcore-elf/4.6.0/c0_div\libgcc.a(_ashldi3.o)
                0x004204ee                __ashldi3
 *fill*         0x00420522        0x2 bebe
 .text          0x00420524       0x14 D:\software_xqy\CCore_IDE/tool-chain/ccore-elf/mcore-elf/lib/c0_div\libc.a(lib_a-abort.o)
                0x00420524                abort
 .text          0x00420538       0x58 D:\software_xqy\CCore_IDE/tool-chain/ccore-elf/mcore-elf/lib/c0_div\libc.a(lib_a-memcmp.o)
                0x00420538                memcmp
 .text          0x00420590       0xae D:\software_xqy\CCore_IDE/tool-chain/ccore-elf/mcore-elf/lib/c0_div\libc.a(lib_a-memset.o)
                0x00420590                memset
 *fill*         0x0042063e        0x2 bebe
 .text          0x00420640      0x118 D:\software_xqy\CCore_IDE/tool-chain/ccore-elf/mcore-elf/lib/c0_div\libc.a(lib_a-s_modf.o)
                0x00420640                modf
 .text          0x00420758      0x1a4 D:\software_xqy\CCore_IDE/tool-chain/ccore-elf/mcore-elf/lib/c0_div\libc.a(lib_a-signal.o)
                0x00420758                _init_signal_r
                0x0042079a                _signal_r
                0x004207dc                _raise_r
                0x00420840                __sigtramp_r
                0x0042088e                raise
                0x004208a0                signal
                0x004208b6                _init_signal
                0x004208c6                __sigtramp
 .text          0x004208fc       0x44 D:\software_xqy\CCore_IDE/tool-chain/ccore-elf/mcore-elf/lib/c0_div\libc.a(lib_a-signalr.o)
                0x004208fc                _kill_r
                0x00420928                _getpid_r
 .text          0x00420940       0x6c D:\software_xqy\CCore_IDE/tool-chain/ccore-elf/mcore-elf/lib/c0_div\libc.a(lib_a-strcat.o)
                0x00420940                strcat
 .text          0x004209ac       0x80 D:\software_xqy\CCore_IDE/tool-chain/ccore-elf/mcore-elf/lib/c0_div\libc.a(lib_a-strcmp.o)
                0x004209ac                strcmp
 .text          0x00420a2c       0x6c D:\software_xqy\CCore_IDE/tool-chain/ccore-elf/mcore-elf/lib/c0_div\libc.a(lib_a-strcpy.o)
                0x00420a2c                strcpy
 .text          0x00420a98       0x84 D:\software_xqy\CCore_IDE/tool-chain/ccore-elf/mcore-elf/lib/c0_div\libc.a(lib_a-strlen.o)
                0x00420a98                strlen
 .text          0x00420b1c      0x4c4 D:\software_xqy\CCore_IDE/tool-chain/ccore-elf/mcore-elf/lib/c0_div\libc.a(lib_a-mallocr.o)
                0x00420b1c                _malloc_r
 .text          0x00420fe0        0x4 D:\software_xqy\CCore_IDE/tool-chain/ccore-elf/mcore-elf/lib/c0_div\libc.a(lib_a-mlock.o)
                0x00420fe0                __malloc_lock
                0x00420fe2                __malloc_unlock
 .text          0x00420fe4       0x34 D:\software_xqy\CCore_IDE/tool-chain/ccore-elf/mcore-elf/lib/c0_div\libc.a(lib_a-sbrkr.o)
                0x00420fe4                _sbrk_r
 .text          0x00421018      0x248 D:\software_xqy\CCore_IDE/tool-chain/ccore-elf/mcore-elf/lib/c0_div\libc.a(lib_a-freer.o)
                0x00421018                _malloc_trim_r
                0x004210a4                _free_r
 .text          0x00421260       0x44 D:\software_xqy\CCore_IDE/tool-chain/ccore-elf/mcore-elf/lib/c0_div\libcmb.a(sbrk.o)
                0x00421260                _sbrk
 .text          0x004212a4       0x3c D:\software_xqy\CCore_IDE/tool-chain/ccore-elf/mcore-elf/lib/c0_div\libcmb.a(write.o)
                0x004212a4                _write
 .text          0x004212e0        0x4 D:\software_xqy\CCore_IDE/tool-chain/ccore-elf/mcore-elf/lib/c0_div\libcmb.a(cmb-exit.o)
                0x004212e0                _exit
 .text          0x004212e4       0x28 D:\software_xqy\CCore_IDE/tool-chain/ccore-elf/mcore-elf/lib/c0_div\libcmb.a(cmb-outbyte.o)
                0x004212e4                outbyte
 .text          0x0042130c        0x4 D:\software_xqy\CCore_IDE/tool-chain/ccore-elf/mcore-elf/lib/c0_div\libcmb.a(getpid.o)
                0x0042130c                _getpid
 .text          0x00421310       0x18 D:\software_xqy\CCore_IDE/tool-chain/ccore-elf/mcore-elf/lib/c0_div\libcmb.a(kill.o)
                0x00421310                _kill
 .text.disable_ecc
                0x00421328       0x20 D:\work\k205_gx\K205_360S\CORE\src\drv\libEflash.a(eflash.o)
                0x00421328                disable_ecc
 .text.eflash_init
                0x00421348       0xbc D:\work\k205_gx\K205_360S\CORE\src\drv\libEflash.a(eflash.o)
                0x00421348                eflash_init
 .text.eflash_page_erase_cache_clean
                0x00421404       0x3c D:\work\k205_gx\K205_360S\CORE\src\drv\libEflash.a(eflash.o)
                0x00421404                eflash_page_erase_cache_clean
 .text.eflash_bulk_program
                0x00421440       0x48 D:\work\k205_gx\K205_360S\CORE\src\drv\libEflash.a(eflash.o)
                0x00421440                eflash_bulk_program
 .text._eflash_page_erase_cache_clean
                0x00421488       0x44 D:\work\k205_gx\K205_360S\CORE\src\drv\libEflash.a(eflash.o)
                0x00421488                _eflash_page_erase_cache_clean
 .text.eflash_set_verify_cnt
                0x004214cc       0x34 D:\work\k205_gx\K205_360S\CORE\src\drv\libEflash.a(eflash.o)
                0x004214cc                eflash_set_verify_cnt
 .text._eflash_bulk_program_2_7u
                0x00421500       0x60 D:\work\k205_gx\K205_360S\CORE\src\drv\libEflash.a(eflash.o)
                0x00421500                _eflash_bulk_program_2_7u
 .text.eflash_set_user_write_auth
                0x00421560       0x1c D:\work\k205_gx\K205_360S\CORE\src\drv\libEflash.a(eflash.o)
                0x00421560                eflash_set_user_write_auth
 .text.eflash_clr_user_write_auth
                0x0042157c       0x1c D:\work\k205_gx\K205_360S\CORE\src\drv\libEflash.a(eflash.o)
                0x0042157c                eflash_clr_user_write_auth
 .text.eflash_set_rwsc
                0x00421598       0x34 D:\work\k205_gx\K205_360S\CORE\src\drv\libEflash.a(eflash.o)
 .text.eflash_set_tpws
                0x004215cc       0x38 D:\work\k205_gx\K205_360S\CORE\src\drv\libEflash.a(eflash.o)
 .text.page_cache_clean
                0x00421604       0x28 D:\work\k205_gx\K205_360S\CORE\src\drv\libEflash.a(cache.o)
                0x00421604                page_cache_clean
 .text.MCC_DMA_int_disable
                0x0042162c       0x1c D:\work\k205_gx\K205_360S\CORE\src\drv\libCUni360S_mcc.a(mcc_bsp.o)
                0x0042162c                MCC_DMA_int_disable
 .text.MCC_DMA_int_enable
                0x00421648       0x1c D:\work\k205_gx\K205_360S\CORE\src\drv\libCUni360S_mcc.a(mcc_bsp.o)
                0x00421648                MCC_DMA_int_enable
 .text.DMA_IRQHandler
                0x00421664       0x74 D:\work\k205_gx\K205_360S\CORE\src\drv\libCUni360S_mcc.a(mcc_bsp.o)
                0x00421664                DMA_IRQHandler
 .text.mcc_adc_hardware_init
                0x004216d8       0xa4 D:\work\k205_gx\K205_360S\CORE\src\drv\libCUni360S_mcc.a(mcc_bsp.o)
                0x004216d8                mcc_adc_hardware_init
 .text.mcc_adc_hardware_uninit
                0x0042177c       0x40 D:\work\k205_gx\K205_360S\CORE\src\drv\libCUni360S_mcc.a(mcc_bsp.o)
                0x0042177c                mcc_adc_hardware_uninit
 .text.mcc_adc_init_para.isra.2
                0x004217bc       0xdc D:\work\k205_gx\K205_360S\CORE\src\drv\libCUni360S_mcc.a(mcc_decode.o)
 .text.mcc_adc_get_data_track.constprop.3
                0x00421898       0x90 D:\work\k205_gx\K205_360S\CORE\src\drv\libCUni360S_mcc.a(mcc_decode.o)
 .text.mcc_track_deal
                0x00421928      0x204 D:\work\k205_gx\K205_360S\CORE\src\drv\libCUni360S_mcc.a(mcc_decode.o)
                0x00421928                mcc_track_deal
 .text.mcc_adc_start
                0x00421b2c       0x48 D:\work\k205_gx\K205_360S\CORE\src\drv\libCUni360S_mcc.a(mcc_decode.o)
                0x00421b2c                mcc_adc_start
 .text.mcc_adc_restart
                0x00421b74       0x20 D:\work\k205_gx\K205_360S\CORE\src\drv\libCUni360S_mcc.a(mcc_decode.o)
                0x00421b74                mcc_adc_restart
 .text.mcc_adc_stop
                0x00421b94       0x10 D:\work\k205_gx\K205_360S\CORE\src\drv\libCUni360S_mcc.a(mcc_decode.o)
                0x00421b94                mcc_adc_stop
 .text.mcc_adc_brushed
                0x00421ba4       0xa0 D:\work\k205_gx\K205_360S\CORE\src\drv\libCUni360S_mcc.a(mcc_decode.o)
                0x00421ba4                mcc_adc_brushed
 .text.mcc_adc_get_data_track2
                0x00421c44       0x20 D:\work\k205_gx\K205_360S\CORE\src\drv\libCUni360S_mcc.a(mcc_decode.o)
                0x00421c44                mcc_adc_get_data_track2
 .text.mcc_adc_get_data_track3
                0x00421c64       0x20 D:\work\k205_gx\K205_360S\CORE\src\drv\libCUni360S_mcc.a(mcc_decode.o)
                0x00421c64                mcc_adc_get_data_track3
 .text.mcc_data_check.constprop.2
                0x00421c84      0x1b0 D:\work\k205_gx\K205_360S\CORE\src\drv\libCUni360S_mcc.a(mcc_lib.o)
 .text.p_v_decode_v4_diff.isra.0.constprop.1
                0x00421e34      0x2ec D:\work\k205_gx\K205_360S\CORE\src\drv\libCUni360S_mcc.a(mcc_lib.o)
 .text.p_v_preprocess
                0x00422120       0x1e D:\work\k205_gx\K205_360S\CORE\src\drv\libCUni360S_mcc.a(mcc_lib.o)
                0x00422120                p_v_preprocess
 *fill*         0x0042213e        0x2 bebe
 .text.mcc_track_decode
                0x00422140     0x1128 D:\work\k205_gx\K205_360S\CORE\src\drv\libCUni360S_mcc.a(mcc_lib.o)
                0x00422140                mcc_track_decode
 .text.RsaModuleEnable
                0x00423268       0x10 D:\work\k205_gx\K205_360S\CORE\src\drv\libAlgorithm.a(crypt.o)
                0x00423268                RsaModuleEnable
 .text.RsaModuleDisable
                0x00423278       0x10 D:\work\k205_gx\K205_360S\CORE\src\drv\libAlgorithm.a(crypt.o)
                0x00423278                RsaModuleDisable
 .text.RSAGCD   0x00423288       0x34 D:\work\k205_gx\K205_360S\CORE\src\drv\libAlgorithm.a(crypt.o)
                0x00423288                RSAGCD
 .text.lengthcalc
                0x004232bc       0x18 D:\work\k205_gx\K205_360S\CORE\src\drv\libAlgorithm.a(crypt.o)
                0x004232bc                lengthcalc
 .text.RsaPrivKeyCRT
                0x004232d4      0x398 D:\work\k205_gx\K205_360S\CORE\src\drv\libAlgorithm.a(crypt.o)
                0x004232d4                RsaPrivKeyCRT
 .text.RsaPubKey
                0x0042366c       0x68 D:\work\k205_gx\K205_360S\CORE\src\drv\libAlgorithm.a(crypt.o)
                0x0042366c                RsaPubKey
 .text.des_key  0x004236d4       0x90 D:\work\k205_gx\K205_360S\CORE\src\drv\libAlgorithm.a(des.o)
                0x004236d4                des_key
 .text.des_crypt
                0x00423764       0xb0 D:\work\k205_gx\K205_360S\CORE\src\drv\libAlgorithm.a(des.o)
                0x00423764                des_crypt
 .text.des_FakeKey
                0x00423814      0x324 D:\work\k205_gx\K205_360S\CORE\src\drv\libAlgorithm.a(des.o)
                0x00423814                des_FakeKey
 .text.des_FakeKey_CBC
                0x00423b38      0x594 D:\work\k205_gx\K205_360S\CORE\src\drv\libAlgorithm.a(des.o)
                0x00423b38                des_FakeKey_CBC
 .text.des_FakeKey_Middle
                0x004240cc      0x298 D:\work\k205_gx\K205_360S\CORE\src\drv\libAlgorithm.a(des.o)
                0x004240cc                des_FakeKey_Middle
 .text.des_FakeKey_CBC_Middle
                0x00424364      0x434 D:\work\k205_gx\K205_360S\CORE\src\drv\libAlgorithm.a(des.o)
                0x00424364                des_FakeKey_CBC_Middle
 .text.DES_Enable
                0x00424798       0x10 D:\work\k205_gx\K205_360S\CORE\src\drv\libAlgorithm.a(des.o)
                0x00424798                DES_Enable
 .text.DES_Disable
                0x004247a8       0x10 D:\work\k205_gx\K205_360S\CORE\src\drv\libAlgorithm.a(des.o)
                0x004247a8                DES_Disable
 .text.DES_EnDecrypt
                0x004247b8      0x1dc D:\work\k205_gx\K205_360S\CORE\src\drv\libAlgorithm.a(des.o)
                0x004247b8                DES_EnDecrypt
 .text.EDMA_TRANS
                0x00424994       0xa0 D:\work\k205_gx\K205_360S\CORE\src\drv\libAlgorithm.a(lib.o)
                0x00424994                EDMA_TRANS
 .text.BigModMulBig
                0x00424a34       0xd0 D:\work\k205_gx\K205_360S\CORE\src\drv\libAlgorithm.a(lib.o)
                0x00424a34                BigModMulBig
 .text.PowMod_hard
                0x00424b04      0x104 D:\work\k205_gx\K205_360S\CORE\src\drv\libAlgorithm.a(lib.o)
                0x00424b04                PowMod_hard
 .text.PowMod   0x00424c08       0x14 D:\work\k205_gx\K205_360S\CORE\src\drv\libAlgorithm.a(lib.o)
                0x00424c08                PowMod
 .text.PowMod_Attack
                0x00424c1c      0x108 D:\work\k205_gx\K205_360S\CORE\src\drv\libAlgorithm.a(lib.o)
                0x00424c1c                PowMod_Attack
 .text.Find_Highest_Bit
                0x00424d24       0x3e D:\work\k205_gx\K205_360S\CORE\src\drv\libAlgorithm.a(lib.o)
                0x00424d24                Find_Highest_Bit
 *fill*         0x00424d62        0x2 bebe
 .text.PowMod_Add_Attack
                0x00424d64      0x3a0 D:\work\k205_gx\K205_360S\CORE\src\drv\libAlgorithm.a(lib.o)
                0x00424d64                PowMod_Add_Attack
 .text.PowMod_Soft_Attack
                0x00425104      0x17c D:\work\k205_gx\K205_360S\CORE\src\drv\libAlgorithm.a(lib.o)
                0x00425104                PowMod_Soft_Attack
 .text.PowModIng
                0x00425280       0xe0 D:\work\k205_gx\K205_360S\CORE\src\drv\libAlgorithm.a(lib.o)
                0x00425280                PowModIng
 .text.Algo_delay
                0x00425360       0x14 D:\work\k205_gx\K205_360S\CORE\src\drv\libAlgorithm.a(lib.o)
                0x00425360                Algo_delay
 .text.Algo_GetRandomWord
                0x00425374       0x24 D:\work\k205_gx\K205_360S\CORE\src\drv\libAlgorithm.a(lib.o)
                0x00425374                Algo_GetRandomWord
 .text.setAlogClk
                0x00425398       0x48 D:\work\k205_gx\K205_360S\CORE\src\drv\libAlgorithm.a(lib.o)
                0x00425398                setAlogClk
 .text.CryptoModuleEnable
                0x004253e0       0x18 D:\work\k205_gx\K205_360S\CORE\src\drv\libAlgorithm.a(lib.o)
                0x004253e0                CryptoModuleEnable
 .text.CryptoModuleRestore
                0x004253f8       0x14 D:\work\k205_gx\K205_360S\CORE\src\drv\libAlgorithm.a(lib.o)
                0x004253f8                CryptoModuleRestore
 .text.SHA_Init
                0x0042540c       0x3c D:\work\k205_gx\K205_360S\CORE\src\drv\libAlgorithm.a(sha.o)
                0x0042540c                SHA_Init
 .text.SHA_Update
                0x00425448      0x154 D:\work\k205_gx\K205_360S\CORE\src\drv\libAlgorithm.a(sha.o)
                0x00425448                SHA_Update
 .text.SHA_Final
                0x0042559c       0x70 D:\work\k205_gx\K205_360S\CORE\src\drv\libAlgorithm.a(sha.o)
                0x0042559c                SHA_Final
 .text.BIG_Add  0x0042560c       0x3e D:\work\k205_gx\K205_360S\CORE\src\drv\libAlgorithm.a(bigint.o)
                0x0042560c                BIG_Add
 .text.BIG_AssignZero
                0x0042564a       0x12 D:\work\k205_gx\K205_360S\CORE\src\drv\libAlgorithm.a(bigint.o)
                0x0042564a                BIG_AssignZero
 .text.BIG_EQUAL_1
                0x0042565c       0x24 D:\work\k205_gx\K205_360S\CORE\src\drv\libAlgorithm.a(bigint.o)
                0x0042565c                BIG_EQUAL_1
 .text.BIG_Sub  0x00425680       0x42 D:\work\k205_gx\K205_360S\CORE\src\drv\libAlgorithm.a(bigint.o)
                0x00425680                BIG_Sub
 .text.BIG_Digits
                0x004256c2       0x2a D:\work\k205_gx\K205_360S\CORE\src\drv\libAlgorithm.a(bigint.o)
                0x004256c2                BIG_Digits
 .text.BIG_RShift
                0x004256ec       0x4e D:\work\k205_gx\K205_360S\CORE\src\drv\libAlgorithm.a(bigint.o)
                0x004256ec                BIG_RShift
 .text.BIG_LShift
                0x0042573a       0x42 D:\work\k205_gx\K205_360S\CORE\src\drv\libAlgorithm.a(bigint.o)
                0x0042573a                BIG_LShift
 .text.BIG_Assign
                0x0042577c       0x12 D:\work\k205_gx\K205_360S\CORE\src\drv\libAlgorithm.a(bigint.o)
                0x0042577c                BIG_Assign
 *fill*         0x0042578e        0x2 bebe
 .text.BIG_Mult
                0x00425790      0x188 D:\work\k205_gx\K205_360S\CORE\src\drv\libAlgorithm.a(bigint.o)
                0x00425790                BIG_Mult
 .text.BIG_Cmp  0x00425918       0x32 D:\work\k205_gx\K205_360S\CORE\src\drv\libAlgorithm.a(bigint.o)
                0x00425918                BIG_Cmp
 *fill*         0x0042594a        0x2 bebe
 .text.BIG_Div  0x0042594c      0x3fc D:\work\k205_gx\K205_360S\CORE\src\drv\libAlgorithm.a(bigint.o)
                0x0042594c                BIG_Div
 .text.BIG_Mod  0x00425d48       0x38 D:\work\k205_gx\K205_360S\CORE\src\drv\libAlgorithm.a(bigint.o)
                0x00425d48                BIG_Mod
 .text.BIG_Zero
                0x00425d80       0x20 D:\work\k205_gx\K205_360S\CORE\src\drv\libAlgorithm.a(bigint.o)
                0x00425d80                BIG_Zero
 .text.BIG_Gcd  0x00425da0       0xa4 D:\work\k205_gx\K205_360S\CORE\src\drv\libAlgorithm.a(bigint.o)
                0x00425da0                BIG_Gcd
 .text.BIG_ModInv
                0x00425e44      0x104 D:\work\k205_gx\K205_360S\CORE\src\drv\libAlgorithm.a(bigint.o)
                0x00425e44                BIG_ModInv
 .text.get_algtype
                0x00425f48       0x30 D:\work\k205_gx\K205_360S\CORE\src\security\algorithm\libAlg.a(algorithm.o)
                0x00425f48                get_algtype
 .text.dev_algorithm_sha256
                0x00425f78       0x6c D:\work\k205_gx\K205_360S\CORE\src\security\algorithm\libAlg.a(algorithm.o)
                0x00425f78                dev_algorithm_sha256
 .text.dev_algorithm_tdes
                0x00425fe4       0x9c D:\work\k205_gx\K205_360S\CORE\src\security\algorithm\libAlg.a(algorithm.o)
                0x00425fe4                dev_algorithm_tdes
 .text.dev_algorithm_getrandom
                0x00426080       0x58 D:\work\k205_gx\K205_360S\CORE\src\security\algorithm\libAlg.a(algorithm.o)
                0x00426080                dev_algorithm_getrandom
 .text.algorithm_pkcs1_5_encode
                0x004260d8       0xb4 D:\work\k205_gx\K205_360S\CORE\src\security\algorithm\libAlg.a(algorithm.o)
                0x004260d8                algorithm_pkcs1_5_encode
 .text.algorithm_pkcs1_5_decode
                0x0042618c       0x58 D:\work\k205_gx\K205_360S\CORE\src\security\algorithm\libAlg.a(algorithm.o)
                0x0042618c                algorithm_pkcs1_5_decode
 .text.algorithm_calrsa_pkg
                0x004261e4      0x27c D:\work\k205_gx\K205_360S\CORE\src\security\algorithm\libAlg.a(algorithm.o)
                0x004261e4                algorithm_calrsa_pkg
 .text.dev_algorithm_calrsapublic
                0x00426460      0x168 D:\work\k205_gx\K205_360S\CORE\src\security\algorithm\libAlg.a(algorithm.o)
                0x00426460                dev_algorithm_calrsapublic
 .text.dev_hardware_getrandom
                0x004265c8       0x10 D:\work\k205_gx\K205_360S\CORE\src\security\algorithm\libAlg.a(algorithm_hardware.o)
                0x004265c8                dev_hardware_getrandom
 .text.dev_hardware_tdes
                0x004265d8       0x18 D:\work\k205_gx\K205_360S\CORE\src\security\algorithm\libAlg.a(algorithm_hardware.o)
                0x004265d8                dev_hardware_tdes
 .text.dev_hardware_calrsapublic
                0x004265f0       0x14 D:\work\k205_gx\K205_360S\CORE\src\security\algorithm\libAlg.a(algorithm_hardware.o)
                0x004265f0                dev_hardware_calrsapublic
 .text.dev_hardware_calrsaprivate
                0x00426604       0x14 D:\work\k205_gx\K205_360S\CORE\src\security\algorithm\libAlg.a(algorithm_hardware.o)
                0x00426604                dev_hardware_calrsaprivate
 .text.dev_hardware_sha256
                0x00426618       0x10 D:\work\k205_gx\K205_360S\CORE\src\security\algorithm\libAlg.a(algorithm_hardware.o)
                0x00426618                dev_hardware_sha256
 .text.dev_cpuhal_init
                0x00426628       0x14 D:\work\k205_gx\K205_360S\CORE\src\security\hal\libcpuhal.a(cpuhal.o)
                0x00426628                dev_cpuhal_init
 .text.dev_cpuhal_clearattack
                0x0042663c       0x2c D:\work\k205_gx\K205_360S\CORE\src\security\hal\libcpuhal.a(cpuhal.o)
                0x0042663c                dev_cpuhal_clearattack
 .text.dev_cpuhal_configdetect
                0x00426668       0x28 D:\work\k205_gx\K205_360S\CORE\src\security\hal\libcpuhal.a(cpuhal.o)
                0x00426668                dev_cpuhal_configdetect
 .text.dev_cpuhal_configcheck
                0x00426690       0x10 D:\work\k205_gx\K205_360S\CORE\src\security\hal\libcpuhal.a(cpuhal.o)
                0x00426690                dev_cpuhal_configcheck
 .text.dev_cpuhal_getcpuid
                0x004266a0       0x50 D:\work\k205_gx\K205_360S\CORE\src\security\hal\libcpuhal.a(cpuhal.o)
                0x004266a0                dev_cpuhal_getcpuid
 .text.dev_cpuhal_writemmk
                0x004266f0       0x9c D:\work\k205_gx\K205_360S\CORE\src\security\hal\libcpuhal.a(cpuhal.o)
                0x004266f0                dev_cpuhal_writemmk
 .text.dev_cpuhal_readmmk
                0x0042678c       0xec D:\work\k205_gx\K205_360S\CORE\src\security\hal\libcpuhal.a(cpuhal.o)
                0x0042678c                dev_cpuhal_readmmk
 .text.dev_cpuhal_getattackstate
                0x00426878       0x74 D:\work\k205_gx\K205_360S\CORE\src\security\hal\libcpuhal.a(cpuhal.o)
                0x00426878                dev_cpuhal_getattackstate
 .text.dev_cpuhal_erasemmk
                0x004268ec       0x44 D:\work\k205_gx\K205_360S\CORE\src\security\hal\libcpuhal.a(cpuhal.o)
                0x004268ec                dev_cpuhal_erasemmk
 .text.dev_cpuhal_getrandom
                0x00426930       0x84 D:\work\k205_gx\K205_360S\CORE\src\security\hal\libcpuhal.a(cpuhal.o)
                0x00426930                dev_cpuhal_getrandom
 .text.dev_cpuhal_tdes
                0x004269b4      0x120 D:\work\k205_gx\K205_360S\CORE\src\security\hal\libcpuhal.a(cpuhal.o)
                0x004269b4                dev_cpuhal_tdes
 .text.dev_cpuhal_calrsapublic
                0x00426ad4       0xa8 D:\work\k205_gx\K205_360S\CORE\src\security\hal\libcpuhal.a(cpuhal.o)
                0x00426ad4                dev_cpuhal_calrsapublic
 .text.dev_cpuhal_calrsaprivate
                0x00426b7c       0xc8 D:\work\k205_gx\K205_360S\CORE\src\security\hal\libcpuhal.a(cpuhal.o)
                0x00426b7c                dev_cpuhal_calrsaprivate
 .text.dev_cpuhal_sha256
                0x00426c44       0xb8 D:\work\k205_gx\K205_360S\CORE\src\security\hal\libcpuhal.a(cpuhal.o)
                0x00426c44                dev_cpuhal_sha256
 .text.PCI_Init
                0x00426cfc       0x40 D:\work\k205_gx\K205_360S\CORE\src\security\hal\libcpuhal.a(pci_drv.o)
                0x00426cfc                PCI_Init
 .text.Nvram_Init
                0x00426d3c       0x2c D:\work\k205_gx\K205_360S\CORE\src\security\hal\libcpuhal.a(pci_drv.o)
                0x00426d3c                Nvram_Init
 .text.pci_nvsram_write
                0x00426d68       0x38 D:\work\k205_gx\K205_360S\CORE\src\security\hal\libcpuhal.a(pci_drv.o)
                0x00426d68                pci_nvsram_write
 .text.pci_nvsram_read
                0x00426da0       0x38 D:\work\k205_gx\K205_360S\CORE\src\security\hal\libcpuhal.a(pci_drv.o)
                0x00426da0                pci_nvsram_read
 .text.PCI_SDIO_Init
                0x00426dd8       0x5c D:\work\k205_gx\K205_360S\CORE\src\security\hal\libcpuhal.a(pci_drv.o)
                0x00426dd8                PCI_SDIO_Init
 .text.PCI_SDIO_Static_Set
                0x00426e34       0x20 D:\work\k205_gx\K205_360S\CORE\src\security\hal\libcpuhal.a(pci_drv.o)
                0x00426e34                PCI_SDIO_Static_Set
 .text.PCI_SDIO_Pull_Set
                0x00426e54       0x40 D:\work\k205_gx\K205_360S\CORE\src\security\hal\libcpuhal.a(pci_drv.o)
                0x00426e54                PCI_SDIO_Pull_Set
 .text.PCI_Clear_Status
                0x00426e94       0x24 D:\work\k205_gx\K205_360S\CORE\src\security\hal\libcpuhal.a(pci_drv.o)
                0x00426e94                PCI_Clear_Status
 .text.PCI_Detect
                0x00426eb8      0x144 D:\work\k205_gx\K205_360S\CORE\src\security\hal\libcpuhal.a(pci_drv.o)
                0x00426eb8                PCI_Detect
 .text.PCI_ISR  0x00426ffc      0x15c D:\work\k205_gx\K205_360S\CORE\src\security\hal\libcpuhal.a(pci_drv.o)
                0x00426ffc                PCI_ISR
 .text.PCI_Check
                0x00427158       0x2c D:\work\k205_gx\K205_360S\CORE\src\security\hal\libcpuhal.a(pci_drv.o)
                0x00427158                PCI_Check
 .text.PCI_CheckBat
                0x00427184       0x44 D:\work\k205_gx\K205_360S\CORE\src\security\hal\libcpuhal.a(pci_drv.o)
                0x00427184                PCI_CheckBat
 .text.dev_secstore_writedata
                0x004271c8       0x54 D:\work\k205_gx\K205_360S\CORE\src\security\sec_datastore\libsecstore.a(dev_secstore.o)
                0x004271c8                dev_secstore_writedata
 .text.dev_secstore_readdata
                0x0042721c       0x5c D:\work\k205_gx\K205_360S\CORE\src\security\sec_datastore\libsecstore.a(dev_secstore.o)
                0x0042721c                dev_secstore_readdata
 .text.dev_secstore_get_info
                0x00427278      0x1e0 D:\work\k205_gx\K205_360S\CORE\src\security\sec_datastore\libsecstore.a(dev_secstore_key.o)
                0x00427278                dev_secstore_get_info
 .text.dev_secstore_getDataConfig
                0x00427458       0x34 D:\work\k205_gx\K205_360S\CORE\src\security\sec_datastore\libsecstore.a(dev_secstore_key.o)
                0x00427458                dev_secstore_getDataConfig
 .text.dev_secstore_datainfo
                0x0042748c       0x34 D:\work\k205_gx\K205_360S\CORE\src\security\sec_datastore\libsecstore.a(dev_secstore_key.o)
                0x0042748c                dev_secstore_datainfo
 .text.dev_secstore_finalope
                0x004274c0       0xb0 D:\work\k205_gx\K205_360S\CORE\src\security\sec_datastore\libsecstore.a(dev_secstore_key.o)
                0x004274c0                dev_secstore_finalope
 .text.ddi_rf_open
                0x00427570       0x34 D:\work\k205_gx\K205_360S\CORE\src\moddev\rfcard_mh1608\libnfc.a(ddi_rfcard_mh1608.o)
                0x00427570                ddi_rf_open
 .text.ddi_rf_close
                0x004275a4       0x30 D:\work\k205_gx\K205_360S\CORE\src\moddev\rfcard_mh1608\libnfc.a(ddi_rfcard_mh1608.o)
                0x004275a4                ddi_rf_close
 .text.ddi_rf_poweron
                0x004275d4       0x4c D:\work\k205_gx\K205_360S\CORE\src\moddev\rfcard_mh1608\libnfc.a(ddi_rfcard_mh1608.o)
                0x004275d4                ddi_rf_poweron
 .text.ddi_rf_poweroff
                0x00427620       0x30 D:\work\k205_gx\K205_360S\CORE\src\moddev\rfcard_mh1608\libnfc.a(ddi_rfcard_mh1608.o)
                0x00427620                ddi_rf_poweroff
 .text.ddi_rf_get_status
                0x00427650       0xc8 D:\work\k205_gx\K205_360S\CORE\src\moddev\rfcard_mh1608\libnfc.a(ddi_rfcard_mh1608.o)
                0x00427650                ddi_rf_get_status
 .text.ddi_rf_remove
                0x00427718       0x30 D:\work\k205_gx\K205_360S\CORE\src\moddev\rfcard_mh1608\libnfc.a(ddi_rfcard_mh1608.o)
                0x00427718                ddi_rf_remove
 .text.ddi_rf_activate
                0x00427748       0x4c D:\work\k205_gx\K205_360S\CORE\src\moddev\rfcard_mh1608\libnfc.a(ddi_rfcard_mh1608.o)
                0x00427748                ddi_rf_activate
 .text.ddi_rf_exchange_apdu
                0x00427794       0x70 D:\work\k205_gx\K205_360S\CORE\src\moddev\rfcard_mh1608\libnfc.a(ddi_rfcard_mh1608.o)
                0x00427794                ddi_rf_exchange_apdu
 .text.ddi_rf_ioctl
                0x00427804      0x140 D:\work\k205_gx\K205_360S\CORE\src\moddev\rfcard_mh1608\libnfc.a(ddi_rfcard_mh1608.o)
                0x00427804                ddi_rf_ioctl
 .text.dev_rf_apdu_set_fwt
                0x00427944       0xf4 D:\work\k205_gx\K205_360S\CORE\src\moddev\rfcard_mh1608\libnfc.a(dev_rfcard_mh1608.o)
 .text.dev_rf_apdu_tcl_transceive
                0x00427a38      0x2da D:\work\k205_gx\K205_360S\CORE\src\moddev\rfcard_mh1608\libnfc.a(dev_rfcard_mh1608.o)
 *fill*         0x00427d12        0x2 bebe
 .text.dev_rf_apdu_send_R_block
                0x00427d14       0xac D:\work\k205_gx\K205_360S\CORE\src\moddev\rfcard_mh1608\libnfc.a(dev_rfcard_mh1608.o)
 .text.dev_rf_apdu_send_I_block.constprop.8
                0x00427dc0       0x94 D:\work\k205_gx\K205_360S\CORE\src\moddev\rfcard_mh1608\libnfc.a(dev_rfcard_mh1608.o)
 .text.dev_rf_apdu_process_error.constprop.10
                0x00427e54      0x1dc D:\work\k205_gx\K205_360S\CORE\src\moddev\rfcard_mh1608\libnfc.a(dev_rfcard_mh1608.o)
 .text.dev_rf_reset_picc_para
                0x00428030       0x50 D:\work\k205_gx\K205_360S\CORE\src\moddev\rfcard_mh1608\libnfc.a(dev_rfcard_mh1608.o)
                0x00428030                dev_rf_reset_picc_para
 .text.dev_rf_para_init
                0x00428080       0x18 D:\work\k205_gx\K205_360S\CORE\src\moddev\rfcard_mh1608\libnfc.a(dev_rfcard_mh1608.o)
                0x00428080                dev_rf_para_init
 .text.dev_rf_open
                0x00428098       0x68 D:\work\k205_gx\K205_360S\CORE\src\moddev\rfcard_mh1608\libnfc.a(dev_rfcard_mh1608.o)
                0x00428098                dev_rf_open
 .text.dev_rf_close
                0x00428100       0x40 D:\work\k205_gx\K205_360S\CORE\src\moddev\rfcard_mh1608\libnfc.a(dev_rfcard_mh1608.o)
                0x00428100                dev_rf_close
 .text.dev_rf_typeA_send_REQA
                0x00428140       0xac D:\work\k205_gx\K205_360S\CORE\src\moddev\rfcard_mh1608\libnfc.a(dev_rfcard_mh1608.o)
                0x00428140                dev_rf_typeA_send_REQA
 .text.dev_rf_typeA_anticoll_req
                0x004281ec      0x168 D:\work\k205_gx\K205_360S\CORE\src\moddev\rfcard_mh1608\libnfc.a(dev_rfcard_mh1608.o)
                0x004281ec                dev_rf_typeA_anticoll_req
 .text.dev_rf_typeA_select
                0x00428354       0xcc D:\work\k205_gx\K205_360S\CORE\src\moddev\rfcard_mh1608\libnfc.a(dev_rfcard_mh1608.o)
                0x00428354                dev_rf_typeA_select
 .text.dev_rf_typeA_anticollision
                0x00428420       0xc8 D:\work\k205_gx\K205_360S\CORE\src\moddev\rfcard_mh1608\libnfc.a(dev_rfcard_mh1608.o)
                0x00428420                dev_rf_typeA_anticollision
 .text.dev_rf_typeA_rats
                0x004284e8      0x150 D:\work\k205_gx\K205_360S\CORE\src\moddev\rfcard_mh1608\libnfc.a(dev_rfcard_mh1608.o)
                0x004284e8                dev_rf_typeA_rats
 .text.dev_rf_typeA_halt
                0x00428638       0x48 D:\work\k205_gx\K205_360S\CORE\src\moddev\rfcard_mh1608\libnfc.a(dev_rfcard_mh1608.o)
                0x00428638                dev_rf_typeA_halt
 .text.dev_rf_typeB_send_REQB
                0x00428680       0xc8 D:\work\k205_gx\K205_360S\CORE\src\moddev\rfcard_mh1608\libnfc.a(dev_rfcard_mh1608.o)
                0x00428680                dev_rf_typeB_send_REQB
 .text.dev_rf_typeB_parse_ATQB
                0x00428748       0x44 D:\work\k205_gx\K205_360S\CORE\src\moddev\rfcard_mh1608\libnfc.a(dev_rfcard_mh1608.o)
                0x00428748                dev_rf_typeB_parse_ATQB
 .text.dev_rf_typeB_attrib
                0x0042878c       0xb8 D:\work\k205_gx\K205_360S\CORE\src\moddev\rfcard_mh1608\libnfc.a(dev_rfcard_mh1608.o)
                0x0042878c                dev_rf_typeB_attrib
 .text.dev_rf_emv_polling
                0x00428844       0x80 D:\work\k205_gx\K205_360S\CORE\src\moddev\rfcard_mh1608\libnfc.a(dev_rfcard_mh1608.o)
                0x00428844                dev_rf_emv_polling
 .text.dev_rf_emv_anticollision
                0x004288c4       0xc0 D:\work\k205_gx\K205_360S\CORE\src\moddev\rfcard_mh1608\libnfc.a(dev_rfcard_mh1608.o)
                0x004288c4                dev_rf_emv_anticollision
 .text.dev_rf_emv_activate
                0x00428984       0x88 D:\work\k205_gx\K205_360S\CORE\src\moddev\rfcard_mh1608\libnfc.a(dev_rfcard_mh1608.o)
                0x00428984                dev_rf_emv_activate
 .text.dev_rf_emv_reset
                0x00428a0c       0x14 D:\work\k205_gx\K205_360S\CORE\src\moddev\rfcard_mh1608\libnfc.a(dev_rfcard_mh1608.o)
                0x00428a0c                dev_rf_emv_reset
 .text.dev_rf_emv_remove_nonblock
                0x00428a20       0x9c D:\work\k205_gx\K205_360S\CORE\src\moddev\rfcard_mh1608\libnfc.a(dev_rfcard_mh1608.o)
                0x00428a20                dev_rf_emv_remove_nonblock
 .text.dev_rf_apdu_exchange
                0x00428abc      0x168 D:\work\k205_gx\K205_360S\CORE\src\moddev\rfcard_mh1608\libnfc.a(dev_rfcard_mh1608.o)
                0x00428abc                dev_rf_apdu_exchange
 .text.dev_rf_picc_get_detected_type
                0x00428c24        0xc D:\work\k205_gx\K205_360S\CORE\src\moddev\rfcard_mh1608\libnfc.a(dev_rfcard_mh1608.o)
                0x00428c24                dev_rf_picc_get_detected_type
 .text.dev_rf_pcd_set_absent_detect_type
                0x00428c30       0x18 D:\work\k205_gx\K205_360S\CORE\src\moddev\rfcard_mh1608\libnfc.a(dev_rfcard_mh1608.o)
                0x00428c30                dev_rf_pcd_set_absent_detect_type
 .text.dev_rf_picc_get_sak
                0x00428c48        0xc D:\work\k205_gx\K205_360S\CORE\src\moddev\rfcard_mh1608\libnfc.a(dev_rfcard_mh1608.o)
                0x00428c48                dev_rf_picc_get_sak
 .text.dev_rf_picc_get_uid
                0x00428c54       0x38 D:\work\k205_gx\K205_360S\CORE\src\moddev\rfcard_mh1608\libnfc.a(dev_rfcard_mh1608.o)
                0x00428c54                dev_rf_picc_get_uid
 .text.dev_rf_picc_get_picc_para
                0x00428c8c       0x18 D:\work\k205_gx\K205_360S\CORE\src\moddev\rfcard_mh1608\libnfc.a(dev_rfcard_mh1608.o)
                0x00428c8c                dev_rf_picc_get_picc_para
 .text.crc8_cal
                0x00428ca4       0x20 D:\work\k205_gx\K205_360S\CORE\src\moddev\rfcard_mh1608\libnfc.a(drv_rfcard_mh1608.o)
                0x00428ca4                crc8_cal
 .text.calculate_param_checksum
                0x00428cc4       0x2c D:\work\k205_gx\K205_360S\CORE\src\moddev\rfcard_mh1608\libnfc.a(drv_rfcard_mh1608.o)
                0x00428cc4                calculate_param_checksum
 .text.drv_cl_read_param
                0x00428cf0       0x20 D:\work\k205_gx\K205_360S\CORE\src\moddev\rfcard_mh1608\libnfc.a(drv_rfcard_mh1608.o)
                0x00428cf0                drv_cl_read_param
 .text.drv_cl_store_param
                0x00428d10       0x1c D:\work\k205_gx\K205_360S\CORE\src\moddev\rfcard_mh1608\libnfc.a(drv_rfcard_mh1608.o)
                0x00428d10                drv_cl_store_param
 .text.drv_cl_default_param
                0x00428d2c       0x54 D:\work\k205_gx\K205_360S\CORE\src\moddev\rfcard_mh1608\libnfc.a(drv_rfcard_mh1608.o)
                0x00428d2c                drv_cl_default_param
 .text.drv_cl_param_init
                0x00428d80       0x60 D:\work\k205_gx\K205_360S\CORE\src\moddev\rfcard_mh1608\libnfc.a(drv_rfcard_mh1608.o)
                0x00428d80                drv_cl_param_init
 .text.drv_cl_set_par
                0x00428de0       0x8c D:\work\k205_gx\K205_360S\CORE\src\moddev\rfcard_mh1608\libnfc.a(drv_rfcard_mh1608.o)
                0x00428de0                drv_cl_set_par
 .text.drv_cl_read_par
                0x00428e6c       0x2c D:\work\k205_gx\K205_360S\CORE\src\moddev\rfcard_mh1608\libnfc.a(drv_rfcard_mh1608.o)
                0x00428e6c                drv_cl_read_par
 .text.drv_rf_spi_init
                0x00428e98       0x2c D:\work\k205_gx\K205_360S\CORE\src\moddev\rfcard_mh1608\libnfc.a(drv_rfcard_mh1608.o)
                0x00428e98                drv_rf_spi_init
 .text.drv_rf_spi_close
                0x00428ec4       0x18 D:\work\k205_gx\K205_360S\CORE\src\moddev\rfcard_mh1608\libnfc.a(drv_rfcard_mh1608.o)
                0x00428ec4                drv_rf_spi_close
 .text.drv_rf_spi_transceive
                0x00428edc       0x44 D:\work\k205_gx\K205_360S\CORE\src\moddev\rfcard_mh1608\libnfc.a(drv_rfcard_mh1608.o)
                0x00428edc                drv_rf_spi_transceive
 .text.drv_mh523_write_reg
                0x00428f20       0x2c D:\work\k205_gx\K205_360S\CORE\src\moddev\rfcard_mh1608\libnfc.a(drv_rfcard_mh1608.o)
                0x00428f20                drv_mh523_write_reg
 .text.drv_cl_apply_par
                0x00428f4c       0x6c D:\work\k205_gx\K205_360S\CORE\src\moddev\rfcard_mh1608\libnfc.a(drv_rfcard_mh1608.o)
                0x00428f4c                drv_cl_apply_par
 .text.drv_mh523_read_reg
                0x00428fb8       0x4c D:\work\k205_gx\K205_360S\CORE\src\moddev\rfcard_mh1608\libnfc.a(drv_rfcard_mh1608.o)
                0x00428fb8                drv_mh523_read_reg
 .text.drv_mh523_setbitmask
                0x00429004       0x2c D:\work\k205_gx\K205_360S\CORE\src\moddev\rfcard_mh1608\libnfc.a(drv_rfcard_mh1608.o)
                0x00429004                drv_mh523_setbitmask
 .text.drv_mh523_clearbitmask
                0x00429030       0x2c D:\work\k205_gx\K205_360S\CORE\src\moddev\rfcard_mh1608\libnfc.a(drv_rfcard_mh1608.o)
                0x00429030                drv_mh523_clearbitmask
 .text.dev_mh523_wakeup
                0x0042905c       0x58 D:\work\k205_gx\K205_360S\CORE\src\moddev\rfcard_mh1608\libnfc.a(drv_rfcard_mh1608.o)
                0x0042905c                dev_mh523_wakeup
 .text.drv_mh523_check
                0x004290b4       0xdc D:\work\k205_gx\K205_360S\CORE\src\moddev\rfcard_mh1608\libnfc.a(drv_rfcard_mh1608.o)
                0x004290b4                drv_mh523_check
 .text.drv_mh523_antenna_on
                0x00429190       0x38 D:\work\k205_gx\K205_360S\CORE\src\moddev\rfcard_mh1608\libnfc.a(drv_rfcard_mh1608.o)
                0x00429190                drv_mh523_antenna_on
 .text.drv_mh523_antenna_off
                0x004291c8       0x3c D:\work\k205_gx\K205_360S\CORE\src\moddev\rfcard_mh1608\libnfc.a(drv_rfcard_mh1608.o)
                0x004291c8                drv_mh523_antenna_off
 .text.drv_mh523_config_type
                0x00429204      0x330 D:\work\k205_gx\K205_360S\CORE\src\moddev\rfcard_mh1608\libnfc.a(drv_rfcard_mh1608.o)
                0x00429204                drv_mh523_config_type
 .text.drv_mh523_set_timeout
                0x00429534       0x40 D:\work\k205_gx\K205_360S\CORE\src\moddev\rfcard_mh1608\libnfc.a(drv_rfcard_mh1608.o)
                0x00429534                drv_mh523_set_timeout
 .text.drv_mh523_excute_cmd
                0x00429574       0xe0 D:\work\k205_gx\K205_360S\CORE\src\moddev\rfcard_mh1608\libnfc.a(drv_rfcard_mh1608.o)
                0x00429574                drv_mh523_excute_cmd
 .text.drv_mh523_get_rcvbits
                0x00429654       0x38 D:\work\k205_gx\K205_360S\CORE\src\moddev\rfcard_mh1608\libnfc.a(drv_rfcard_mh1608.o)
                0x00429654                drv_mh523_get_rcvbits
 .text.drv_mh523_software_power_down
                0x0042968c       0x14 D:\work\k205_gx\K205_360S\CORE\src\moddev\rfcard_mh1608\libnfc.a(drv_rfcard_mh1608.o)
                0x0042968c                drv_mh523_software_power_down
 .text.drv_mh523_close
                0x004296a0       0x40 D:\work\k205_gx\K205_360S\CORE\src\moddev\rfcard_mh1608\libnfc.a(drv_rfcard_mh1608.o)
                0x004296a0                drv_mh523_close
 .text.drv_mh523_open
                0x004296e0       0x80 D:\work\k205_gx\K205_360S\CORE\src\moddev\rfcard_mh1608\libnfc.a(drv_rfcard_mh1608.o)
                0x004296e0                drv_mh523_open
 .text.drv_mh523_software_power_on
                0x00429760       0x14 D:\work\k205_gx\K205_360S\CORE\src\moddev\rfcard_mh1608\libnfc.a(drv_rfcard_mh1608.o)
                0x00429760                drv_mh523_software_power_on
 .text.drv_mh523_ctrl_pin
                0x00429774       0x50 D:\work\k205_gx\K205_360S\CORE\src\moddev\rfcard_mh1608\libnfc.a(drv_rfcard_mh1608.o)
                0x00429774                drv_mh523_ctrl_pin
 .text.ddi_iccpsam_open
                0x004297c4       0x38 D:\work\k205_gx\K205_360S\CORE\src\moddev\iccard\libicc.a(ddi_iccard.o)
                0x004297c4                ddi_iccpsam_open
 .text.ddi_iccpsam_close
                0x004297fc       0x34 D:\work\k205_gx\K205_360S\CORE\src\moddev\iccard\libicc.a(ddi_iccard.o)
                0x004297fc                ddi_iccpsam_close
 .text.ddi_iccpsam_poweroff
                0x00429830       0x34 D:\work\k205_gx\K205_360S\CORE\src\moddev\iccard\libicc.a(ddi_iccard.o)
                0x00429830                ddi_iccpsam_poweroff
 .text.ddi_iccpsam_exchange_apdu
                0x00429864       0x48 D:\work\k205_gx\K205_360S\CORE\src\moddev\iccard\libicc.a(ddi_iccard.o)
                0x00429864                ddi_iccpsam_exchange_apdu
 .text.ddi_iccpsam_get_status
                0x004298ac       0x30 D:\work\k205_gx\K205_360S\CORE\src\moddev\iccard\libicc.a(ddi_iccard.o)
                0x004298ac                ddi_iccpsam_get_status
 .text.ddi_iccpsam_poweron
                0x004298dc       0x6c D:\work\k205_gx\K205_360S\CORE\src\moddev\iccard\libicc.a(ddi_iccard.o)
                0x004298dc                ddi_iccpsam_poweron
 .text.ddi_iccpsam_ioctl
                0x00429948        0x4 D:\work\k205_gx\K205_360S\CORE\src\moddev\iccard\libicc.a(ddi_iccard.o)
                0x00429948                ddi_iccpsam_ioctl
 .text.enter_recive_historical_byte
                0x0042994c       0x40 D:\work\k205_gx\K205_360S\CORE\src\moddev\iccard\libicc.a(dev_iccard.o)
 .text.deal_TS  0x0042998c       0x5c D:\work\k205_gx\K205_360S\CORE\src\moddev\iccard\libicc.a(dev_iccard.o)
 .text.JudgeResetIC
                0x004299e8      0x39c D:\work\k205_gx\K205_360S\CORE\src\moddev\iccard\libicc.a(dev_iccard.o)
 .text.drv_sim7816_read_byte
                0x00429d84       0x2c D:\work\k205_gx\K205_360S\CORE\src\moddev\iccard\libicc.a(dev_iccard.o)
                0x00429d84                drv_sim7816_read_byte
 .text.private_ic_reset
                0x00429db0       0x5c D:\work\k205_gx\K205_360S\CORE\src\moddev\iccard\libicc.a(dev_iccard.o)
                0x00429db0                private_ic_reset
 .text.private_ic_t1_write
                0x00429e0c       0x50 D:\work\k205_gx\K205_360S\CORE\src\moddev\iccard\libicc.a(dev_iccard.o)
                0x00429e0c                private_ic_t1_write
 .text.icc_deactivation
                0x00429e5c       0x4c D:\work\k205_gx\K205_360S\CORE\src\moddev\iccard\libicc.a(dev_iccard.o)
                0x00429e5c                icc_deactivation
 .text.drv_sim7816_config
                0x00429ea8       0x48 D:\work\k205_gx\K205_360S\CORE\src\moddev\iccard\libicc.a(dev_iccard.o)
                0x00429ea8                drv_sim7816_config
 .text.SIM_W_RData
                0x00429ef0       0xa4 D:\work\k205_gx\K205_360S\CORE\src\moddev\iccard\libicc.a(dev_iccard.o)
 .text.deal_T0  0x00429f94       0x58 D:\work\k205_gx\K205_360S\CORE\src\moddev\iccard\libicc.a(dev_iccard.o)
                0x00429f94                deal_T0
 .text.deal_A1_D1
                0x00429fec       0x80 D:\work\k205_gx\K205_360S\CORE\src\moddev\iccard\libicc.a(dev_iccard.o)
                0x00429fec                deal_A1_D1
 .text.deal_A2_D2
                0x0042a06c       0x8c D:\work\k205_gx\K205_360S\CORE\src\moddev\iccard\libicc.a(dev_iccard.o)
                0x0042a06c                deal_A2_D2
 .text.deal_A3_D3
                0x0042a0f8       0x88 D:\work\k205_gx\K205_360S\CORE\src\moddev\iccard\libicc.a(dev_iccard.o)
                0x0042a0f8                deal_A3_D3
 .text.deal_A4_D4
                0x0042a180       0x4c D:\work\k205_gx\K205_360S\CORE\src\moddev\iccard\libicc.a(dev_iccard.o)
                0x0042a180                deal_A4_D4
 .text.sim_deal_data
                0x0042a1cc      0xbc4 D:\work\k205_gx\K205_360S\CORE\src\moddev\iccard\libicc.a(dev_iccard.o)
 .text.sim_reset_setting
                0x0042ad90       0xa8 D:\work\k205_gx\K205_360S\CORE\src\moddev\iccard\libicc.a(dev_iccard.o)
                0x0042ad90                sim_reset_setting
 .text.icc_detect
                0x0042ae38       0x30 D:\work\k205_gx\K205_360S\CORE\src\moddev\iccard\libicc.a(dev_iccard.o)
                0x0042ae38                icc_detect
 .text.drv_iccpsam_get_status
                0x0042ae68       0x44 D:\work\k205_gx\K205_360S\CORE\src\moddev\iccard\libicc.a(dev_iccard.o)
                0x0042ae68                drv_iccpsam_get_status
 .text.public_drv_ic_init
                0x0042aeac       0xc4 D:\work\k205_gx\K205_360S\CORE\src\moddev\iccard\libicc.a(dev_iccard.o)
                0x0042aeac                public_drv_ic_init
 .text.public_drv_ic_reset
                0x0042af70      0x194 D:\work\k205_gx\K205_360S\CORE\src\moddev\iccard\libicc.a(dev_iccard.o)
                0x0042af70                public_drv_ic_reset
 .text.public_drv_ic_command
                0x0042b104      0x2a0 D:\work\k205_gx\K205_360S\CORE\src\moddev\iccard\libicc.a(dev_iccard.o)
                0x0042b104                public_drv_ic_command
 .text.drv_iccpsam_exchange_apdu
                0x0042b3a4       0x58 D:\work\k205_gx\K205_360S\CORE\src\moddev\iccard\libicc.a(dev_iccard.o)
                0x0042b3a4                drv_iccpsam_exchange_apdu
 .text.public_drv_ic_deinit
                0x0042b3fc       0x14 D:\work\k205_gx\K205_360S\CORE\src\moddev\iccard\libicc.a(dev_iccard.o)
                0x0042b3fc                public_drv_ic_deinit
 .text.UsiVccOn
                0x0042b410       0x54 D:\work\k205_gx\K205_360S\CORE\src\moddev\iccard\libicc.a(drv_iccard.o)
                0x0042b410                UsiVccOn
 .text.UsiVccOff
                0x0042b464       0x24 D:\work\k205_gx\K205_360S\CORE\src\moddev\iccard\libicc.a(drv_iccard.o)
                0x0042b464                UsiVccOff
 .text.UsiVccSelect
                0x0042b488       0x30 D:\work\k205_gx\K205_360S\CORE\src\moddev\iccard\libicc.a(drv_iccard.o)
                0x0042b488                UsiVccSelect
 .text.UsiClkCtrl
                0x0042b4b8       0x1c D:\work\k205_gx\K205_360S\CORE\src\moddev\iccard\libicc.a(drv_iccard.o)
                0x0042b4b8                UsiClkCtrl
 .text.ISO7816DeInit
                0x0042b4d4       0x10 D:\work\k205_gx\K205_360S\CORE\src\moddev\iccard\libicc.a(drv_iccard.o)
                0x0042b4d4                ISO7816DeInit
 .text.UsiClearRDR
                0x0042b4e4       0x1c D:\work\k205_gx\K205_360S\CORE\src\moddev\iccard\libicc.a(drv_iccard.o)
                0x0042b4e4                UsiClearRDR
 .text.UsiRstHL
                0x0042b500       0x20 D:\work\k205_gx\K205_360S\CORE\src\moddev\iccard\libicc.a(drv_iccard.o)
                0x0042b500                UsiRstHL
 .text.UsiClkHL
                0x0042b520       0x20 D:\work\k205_gx\K205_360S\CORE\src\moddev\iccard\libicc.a(drv_iccard.o)
                0x0042b520                UsiClkHL
 .text.UsiIoHL  0x0042b540       0x20 D:\work\k205_gx\K205_360S\CORE\src\moddev\iccard\libicc.a(drv_iccard.o)
                0x0042b540                UsiIoHL
 .text.UsiSetGT
                0x0042b560       0x24 D:\work\k205_gx\K205_360S\CORE\src\moddev\iccard\libicc.a(drv_iccard.o)
                0x0042b560                UsiSetGT
 .text.UsiWtcCtrl
                0x0042b584       0x20 D:\work\k205_gx\K205_360S\CORE\src\moddev\iccard\libicc.a(drv_iccard.o)
                0x0042b584                UsiWtcCtrl
 .text.UsiSetWTC
                0x0042b5a4       0x2c D:\work\k205_gx\K205_360S\CORE\src\moddev\iccard\libicc.a(drv_iccard.o)
                0x0042b5a4                UsiSetWTC
 .text.UsiWaitClks
                0x0042b5d0       0x3c D:\work\k205_gx\K205_360S\CORE\src\moddev\iccard\libicc.a(drv_iccard.o)
                0x0042b5d0                UsiWaitClks
 .text.UsiSetProtocol
                0x0042b60c       0x3c D:\work\k205_gx\K205_360S\CORE\src\moddev\iccard\libicc.a(drv_iccard.o)
                0x0042b60c                UsiSetProtocol
 .text.UsiSetConvention
                0x0042b648       0x30 D:\work\k205_gx\K205_360S\CORE\src\moddev\iccard\libicc.a(drv_iccard.o)
                0x0042b648                UsiSetConvention
 .text.UsiBprInit
                0x0042b678       0x2c D:\work\k205_gx\K205_360S\CORE\src\moddev\iccard\libicc.a(drv_iccard.o)
                0x0042b678                UsiBprInit
 .text.UsiParityCtr
                0x0042b6a4       0x20 D:\work\k205_gx\K205_360S\CORE\src\moddev\iccard\libicc.a(drv_iccard.o)
                0x0042b6a4                UsiParityCtr
 .text.UsiSetSendErrRetry
                0x0042b6c4       0x2c D:\work\k205_gx\K205_360S\CORE\src\moddev\iccard\libicc.a(drv_iccard.o)
                0x0042b6c4                UsiSetSendErrRetry
 .text.UsiRcvErrSignalGenCtrl
                0x0042b6f0       0x28 D:\work\k205_gx\K205_360S\CORE\src\moddev\iccard\libicc.a(drv_iccard.o)
                0x0042b6f0                UsiRcvErrSignalGenCtrl
 .text.UsiInit  0x0042b718       0x80 D:\work\k205_gx\K205_360S\CORE\src\moddev\iccard\libicc.a(drv_iccard.o)
                0x0042b718                UsiInit
 .text.ISO7816Init
                0x0042b798       0x28 D:\work\k205_gx\K205_360S\CORE\src\moddev\iccard\libicc.a(drv_iccard.o)
                0x0042b798                ISO7816Init
 .text.UsiReadByte
                0x0042b7c0       0xb0 D:\work\k205_gx\K205_360S\CORE\src\moddev\iccard\libicc.a(drv_iccard.o)
                0x0042b7c0                UsiReadByte
 .text.UsiWriteByte
                0x0042b870       0x58 D:\work\k205_gx\K205_360S\CORE\src\moddev\iccard\libicc.a(drv_iccard.o)
                0x0042b870                UsiWriteByte
 .text.UsiActivation
                0x0042b8c8       0x48 D:\work\k205_gx\K205_360S\CORE\src\moddev\iccard\libicc.a(drv_iccard.o)
                0x0042b8c8                UsiActivation
 .text.UsiDeactivation
                0x0042b910       0x58 D:\work\k205_gx\K205_360S\CORE\src\moddev\iccard\libicc.a(drv_iccard.o)
                0x0042b910                UsiDeactivation
 .text.DelayMS  0x0042b968       0x30 D:\work\k205_gx\K205_360S\CORE\src\moddev\iccard\libicc.a(icc_hardware.o)
                0x0042b968                DelayMS
 .text.ddi_bt_open
                0x0042b998       0x54 D:\work\k205_gx\K205_360S\CORE\src\moddev\bluetooth\libbt_lib.a(dev_bt_api.o)
                0x0042b998                ddi_bt_open
 .text.ddi_bt_get_status
                0x0042b9ec       0x30 D:\work\k205_gx\K205_360S\CORE\src\moddev\bluetooth\libbt_lib.a(dev_bt_api.o)
                0x0042b9ec                ddi_bt_get_status
 .text.ddi_bt_read
                0x0042ba1c       0x48 D:\work\k205_gx\K205_360S\CORE\src\moddev\bluetooth\libbt_lib.a(dev_bt_api.o)
                0x0042ba1c                ddi_bt_read
 .text.ddi_bt_write
                0x0042ba64       0x50 D:\work\k205_gx\K205_360S\CORE\src\moddev\bluetooth\libbt_lib.a(dev_bt_api.o)
                0x0042ba64                ddi_bt_write
 .text.ddi_bt_close
                0x0042bab4       0x2c D:\work\k205_gx\K205_360S\CORE\src\moddev\bluetooth\libbt_lib.a(dev_bt_api.o)
                0x0042bab4                ddi_bt_close
 .text.ddi_bt_ioctl
                0x0042bae0      0x180 D:\work\k205_gx\K205_360S\CORE\src\moddev\bluetooth\libbt_lib.a(dev_bt_api.o)
                0x0042bae0                ddi_bt_ioctl
 .text.ddi_bt_disconnect
                0x0042bc60       0x30 D:\work\k205_gx\K205_360S\CORE\src\moddev\bluetooth\libbt_lib.a(dev_bt_api.o)
                0x0042bc60                ddi_bt_disconnect
 .text.YC_connect
                0x0042bc90       0x68 D:\work\k205_gx\K205_360S\CORE\src\moddev\bluetooth\libbt_lib.a(yc1021.o)
 .text.YC_WaitBootCmdComplete.constprop.14
                0x0042bcf8       0x78 D:\work\k205_gx\K205_360S\CORE\src\moddev\bluetooth\libbt_lib.a(yc1021.o)
 .text.bt_parameter_init
                0x0042bd70       0xd0 D:\work\k205_gx\K205_360S\CORE\src\moddev\bluetooth\libbt_lib.a(yc1021.o)
                0x0042bd70                bt_parameter_init
 .text.bt_set_parameter
                0x0042be40       0xa8 D:\work\k205_gx\K205_360S\CORE\src\moddev\bluetooth\libbt_lib.a(yc1021.o)
                0x0042be40                bt_set_parameter
 .text.bt_com_write
                0x0042bee8       0x20 D:\work\k205_gx\K205_360S\CORE\src\moddev\bluetooth\libbt_lib.a(yc1021.o)
                0x0042bee8                bt_com_write
 .text.YC_Echo  0x0042bf08       0x3c D:\work\k205_gx\K205_360S\CORE\src\moddev\bluetooth\libbt_lib.a(yc1021.o)
 .text.YC_BT_io_init
                0x0042bf44       0x58 D:\work\k205_gx\K205_360S\CORE\src\moddev\bluetooth\libbt_lib.a(yc1021.o)
                0x0042bf44                YC_BT_io_init
 .text.bt_uart_read
                0x0042bf9c       0x68 D:\work\k205_gx\K205_360S\CORE\src\moddev\bluetooth\libbt_lib.a(yc1021.o)
                0x0042bf9c                bt_uart_read
 .text.bt_uart_parser
                0x0042c004      0x150 D:\work\k205_gx\K205_360S\CORE\src\moddev\bluetooth\libbt_lib.a(yc1021.o)
                0x0042c004                bt_uart_parser
 .text.YC_status_check
                0x0042c154       0x20 D:\work\k205_gx\K205_360S\CORE\src\moddev\bluetooth\libbt_lib.a(yc1021.o)
                0x0042c154                YC_status_check
 .text.is_YC_connect
                0x0042c174       0x1c D:\work\k205_gx\K205_360S\CORE\src\moddev\bluetooth\libbt_lib.a(yc1021.o)
                0x0042c174                is_YC_connect
 .text.bt_pair_file_init
                0x0042c190       0x54 D:\work\k205_gx\K205_360S\CORE\src\moddev\bluetooth\libbt_lib.a(yc1021.o)
                0x0042c190                bt_pair_file_init
 .text.bt_pair_info_save
                0x0042c1e4       0x60 D:\work\k205_gx\K205_360S\CORE\src\moddev\bluetooth\libbt_lib.a(yc1021.o)
                0x0042c1e4                bt_pair_info_save
 .text.SPP_Link_info_update
                0x0042c244      0x154 D:\work\k205_gx\K205_360S\CORE\src\moddev\bluetooth\libbt_lib.a(yc1021.o)
                0x0042c244                SPP_Link_info_update
 .text.SPP_search_link_key
                0x0042c398       0xcc D:\work\k205_gx\K205_360S\CORE\src\moddev\bluetooth\libbt_lib.a(yc1021.o)
                0x0042c398                SPP_search_link_key
 .text.yc_get_event
                0x0042c464       0x78 D:\work\k205_gx\K205_360S\CORE\src\moddev\bluetooth\libbt_lib.a(yc1021.o)
                0x0042c464                yc_get_event
 .text.YC_isCmdComplete
                0x0042c4dc       0x64 D:\work\k205_gx\K205_360S\CORE\src\moddev\bluetooth\libbt_lib.a(yc1021.o)
                0x0042c4dc                YC_isCmdComplete
 .text.YC_CMD_current_link_key
                0x0042c540       0x8c D:\work\k205_gx\K205_360S\CORE\src\moddev\bluetooth\libbt_lib.a(yc1021.o)
                0x0042c540                YC_CMD_current_link_key
 .text.YC_CMD_ble_disconnect
                0x0042c5cc       0x44 D:\work\k205_gx\K205_360S\CORE\src\moddev\bluetooth\libbt_lib.a(yc1021.o)
                0x0042c5cc                YC_CMD_ble_disconnect
 .text.YC_CMD_bt_disconnect
                0x0042c610       0x44 D:\work\k205_gx\K205_360S\CORE\src\moddev\bluetooth\libbt_lib.a(yc1021.o)
                0x0042c610                YC_CMD_bt_disconnect
 .text.YC_CMD_disconnect
                0x0042c654       0x34 D:\work\k205_gx\K205_360S\CORE\src\moddev\bluetooth\libbt_lib.a(yc1021.o)
                0x0042c654                YC_CMD_disconnect
 .text.YC_CMD_soft_reset
                0x0042c688       0x34 D:\work\k205_gx\K205_360S\CORE\src\moddev\bluetooth\libbt_lib.a(yc1021.o)
                0x0042c688                YC_CMD_soft_reset
 .text.YC_CMD_get_version
                0x0042c6bc       0x44 D:\work\k205_gx\K205_360S\CORE\src\moddev\bluetooth\libbt_lib.a(yc1021.o)
                0x0042c6bc                YC_CMD_get_version
 .text.YC_Version
                0x0042c700       0x20 D:\work\k205_gx\K205_360S\CORE\src\moddev\bluetooth\libbt_lib.a(yc1021.o)
                0x0042c700                YC_Version
 .text.YC_CMD_SetAdvParam
                0x0042c720       0x5c D:\work\k205_gx\K205_360S\CORE\src\moddev\bluetooth\libbt_lib.a(yc1021.o)
                0x0042c720                YC_CMD_SetAdvParam
 .text.YC_CMD_SetScanData
                0x0042c77c       0x54 D:\work\k205_gx\K205_360S\CORE\src\moddev\bluetooth\libbt_lib.a(yc1021.o)
                0x0042c77c                YC_CMD_SetScanData
 .text.YC_CMD_SetLEAdvData
                0x0042c7d0       0x54 D:\work\k205_gx\K205_360S\CORE\src\moddev\bluetooth\libbt_lib.a(yc1021.o)
                0x0042c7d0                YC_CMD_SetLEAdvData
 .text.YC_CMD_set_pincode
                0x0042c824       0x54 D:\work\k205_gx\K205_360S\CORE\src\moddev\bluetooth\libbt_lib.a(yc1021.o)
                0x0042c824                YC_CMD_set_pincode
 .text.YC_CMD_set_pairing_mode
                0x0042c878       0x48 D:\work\k205_gx\K205_360S\CORE\src\moddev\bluetooth\libbt_lib.a(yc1021.o)
                0x0042c878                YC_CMD_set_pairing_mode
 .text.YC_CMD_set_ble_name
                0x0042c8c0       0x54 D:\work\k205_gx\K205_360S\CORE\src\moddev\bluetooth\libbt_lib.a(yc1021.o)
                0x0042c8c0                YC_CMD_set_ble_name
 .text.YC_CMD_set_bt_name
                0x0042c914       0x54 D:\work\k205_gx\K205_360S\CORE\src\moddev\bluetooth\libbt_lib.a(yc1021.o)
                0x0042c914                YC_CMD_set_bt_name
 .text.YC_CMD_set_ble_addr
                0x0042c968       0x4c D:\work\k205_gx\K205_360S\CORE\src\moddev\bluetooth\libbt_lib.a(yc1021.o)
                0x0042c968                YC_CMD_set_ble_addr
 .text.YC_CMD_set_bt_addr
                0x0042c9b4       0x4c D:\work\k205_gx\K205_360S\CORE\src\moddev\bluetooth\libbt_lib.a(yc1021.o)
                0x0042c9b4                YC_CMD_set_bt_addr
 .text.YC_change_name_mac
                0x0042ca00       0xc8 D:\work\k205_gx\K205_360S\CORE\src\moddev\bluetooth\libbt_lib.a(yc1021.o)
                0x0042ca00                YC_change_name_mac
 .text.YC_CMD_set_visibility
                0x0042cac8       0x58 D:\work\k205_gx\K205_360S\CORE\src\moddev\bluetooth\libbt_lib.a(yc1021.o)
                0x0042cac8                YC_CMD_set_visibility
 .text.YC_disconnect
                0x0042cb20       0x70 D:\work\k205_gx\K205_360S\CORE\src\moddev\bluetooth\libbt_lib.a(yc1021.o)
                0x0042cb20                YC_disconnect
 .text.bt_deal_event_data
                0x0042cb90      0x128 D:\work\k205_gx\K205_360S\CORE\src\moddev\bluetooth\libbt_lib.a(yc1021.o)
                0x0042cb90                bt_deal_event_data
 .text._YC_CMD_send_spp_data.part.12
                0x0042ccb8       0x3c D:\work\k205_gx\K205_360S\CORE\src\moddev\bluetooth\libbt_lib.a(yc1021.o)
 .text._YC_CMD_send_ble_data.part.13
                0x0042ccf4       0x50 D:\work\k205_gx\K205_360S\CORE\src\moddev\bluetooth\libbt_lib.a(yc1021.o)
 .text.YC_CMD_send_data
                0x0042cd44       0xec D:\work\k205_gx\K205_360S\CORE\src\moddev\bluetooth\libbt_lib.a(yc1021.o)
                0x0042cd44                YC_CMD_send_data
 .text.bt_send_data
                0x0042ce30       0xa4 D:\work\k205_gx\K205_360S\CORE\src\moddev\bluetooth\libbt_lib.a(yc1021.o)
                0x0042ce30                bt_send_data
 .text.bt_core_task
                0x0042ced4       0x30 D:\work\k205_gx\K205_360S\CORE\src\moddev\bluetooth\libbt_lib.a(yc1021.o)
                0x0042ced4                bt_core_task
 .text.YC_BT_init
                0x0042cf04       0xe8 D:\work\k205_gx\K205_360S\CORE\src\moddev\bluetooth\libbt_lib.a(yc1021.o)
                0x0042cf04                YC_BT_init
 .text.dev_BT_init
                0x0042cfec       0x20 D:\work\k205_gx\K205_360S\CORE\src\moddev\bluetooth\libbt_lib.a(yc1021.o)
                0x0042cfec                dev_BT_init
 .text.bt_data_reset
                0x0042d00c       0x60 D:\work\k205_gx\K205_360S\CORE\src\moddev\bluetooth\libbt_lib.a(yc1021.o)
                0x0042d00c                bt_data_reset
 .text.get_bt_mac
                0x0042d06c       0x48 D:\work\k205_gx\K205_360S\CORE\src\moddev\bluetooth\libbt_lib.a(yc1021.o)
                0x0042d06c                get_bt_mac
 .text.get_bt_name
                0x0042d0b4       0x70 D:\work\k205_gx\K205_360S\CORE\src\moddev\bluetooth\libbt_lib.a(yc1021.o)
                0x0042d0b4                get_bt_name
 .text.get_bt_Version
                0x0042d124       0x64 D:\work\k205_gx\K205_360S\CORE\src\moddev\bluetooth\libbt_lib.a(yc1021.o)
                0x0042d124                get_bt_Version
 .text.BT_into_sleep
                0x0042d188       0xb4 D:\work\k205_gx\K205_360S\CORE\src\moddev\bluetooth\libbt_lib.a(yc1021.o)
                0x0042d188                BT_into_sleep
 .text.BT_wakeup
                0x0042d23c       0x30 D:\work\k205_gx\K205_360S\CORE\src\moddev\bluetooth\libbt_lib.a(yc1021.o)
                0x0042d23c                BT_wakeup
 .text.dev_BT_send_disable
                0x0042d26c       0x48 D:\work\k205_gx\K205_360S\CORE\src\moddev\bluetooth\libbt_lib.a(yc1021.o)
                0x0042d26c                dev_BT_send_disable
 .text.dev_BT_send_enable
                0x0042d2b4       0x24 D:\work\k205_gx\K205_360S\CORE\src\moddev\bluetooth\libbt_lib.a(yc1021.o)
                0x0042d2b4                dev_BT_send_enable
 .text.YC_CMD_disconnect_forcet
                0x0042d2d8       0x5c D:\work\k205_gx\K205_360S\CORE\src\moddev\bluetooth\libbt_lib.a(yc1021.o)
                0x0042d2d8                YC_CMD_disconnect_forcet
 .text.is_bt_ready
                0x0042d334       0x10 D:\work\k205_gx\K205_360S\CORE\src\moddev\bluetooth\libbt_lib.a(yc1021.o)
                0x0042d334                is_bt_ready
 .text.yc_stop_adv
                0x0042d344       0x3c D:\work\k205_gx\K205_360S\CORE\src\moddev\bluetooth\libbt_lib.a(yc1021.o)
                0x0042d344                yc_stop_adv
 .text.yc_start_adv
                0x0042d380       0x30 D:\work\k205_gx\K205_360S\CORE\src\moddev\bluetooth\libbt_lib.a(yc1021.o)
                0x0042d380                yc_start_adv
 .text.app_fifo_init
                0x0042d3b0       0x20 D:\work\k205_gx\K205_360S\CORE\src\moddev\bluetooth\libbt_lib.a(app_fifo.o)
                0x0042d3b0                app_fifo_init
 .text.app_fifo_write
                0x0042d3d0       0x74 D:\work\k205_gx\K205_360S\CORE\src\moddev\bluetooth\libbt_lib.a(app_fifo.o)
                0x0042d3d0                app_fifo_write
 .text.app_fifo_read
                0x0042d444       0x80 D:\work\k205_gx\K205_360S\CORE\src\moddev\bluetooth\libbt_lib.a(app_fifo.o)
                0x0042d444                app_fifo_read
 .text.app_fifo_usable
                0x0042d4c4        0x8 D:\work\k205_gx\K205_360S\CORE\src\moddev\bluetooth\libbt_lib.a(app_fifo.o)
                0x0042d4c4                app_fifo_usable
 .text.app_fifo_data_len
                0x0042d4cc        0x4 D:\work\k205_gx\K205_360S\CORE\src\moddev\bluetooth\libbt_lib.a(app_fifo.o)
                0x0042d4cc                app_fifo_data_len
 .text.ReadChipSN
                0x0042d4d0       0x34 D:\work\k205_gx\K205_360S\CORE\src\ccore\libReadChipSn.a(LibReadChipSN.o)
                0x0042d4d0                ReadChipSN
                0x0042d508                . = ALIGN (0x8)
 *fill*         0x0042d504        0x4 bebe
                0x0042d508                _end_text = .

.data           0x00800000      0xbf0 load address 0x0042d508
                0x00800000                _start_data = .
 *(.data)
 .data          0x00800000        0x4 ./src/sysdrv/rtc/RTC.o
 .data          0x00800004        0x4 ./src/sysdev/usb/dev_usb.o
 .data          0x00800008       0x82 ./src/sysbus/usb/drv_usb.o
                0x00800008                g_usb_data_out_ep
                0x00800009                g_usb_data_in_ep
                0x0080000c                g_usb_enum_config_descriptor
                0x00800010                g_usb_enum_device_descriptor
                0x00800014                StringDescContent
                0x00800024                cdc_LineCoding
                0x0080002c                cdc_ConfigurationDescriptor
                0x00800078                cdc_DeviceDescriptor
 *fill*         0x0080008a        0x2 00
 .data          0x0080008c       0x10 ./src/sysbus/uart/UART.o
 .data          0x0080009c        0x4 ./src/security/app/cmd_proc.o
                0x0080009c                g_ex_mutul_auth_flag
 .data          0x008000a0        0x8 ./src/security/app/ex_func.o
                0x008000a0                g_status_2
                0x008000a1                g_status_1
                0x008000a4                g_terminal_mod
 .data          0x008000a8       0x12 ./src/moddrv/lcd/drv_lcd_font_data.o
                0x008000a8                font_12_12
                0x008000ac                font_flags_12
                0x008000b0                font_16_16
                0x008000b4                font_flags
 *fill*         0x008000ba        0x2 00
 .data          0x008000bc        0x8 ./src/moddrv/beep/drv_beep.o
 .data          0x008000c4        0x1 ./src/moddev/power/dev_power.o
 *fill*         0x008000c5        0x3 00
 .data          0x008000c8        0x4 ./src/moddev/magcard/dev_magcard.o
 .data          0x008000cc        0x4 ./src/moddev/led/ddi_led.o
 .data          0x008000d0        0xc ./src/moddev/lcd/dev_lcd.o
                0x008000d0                CurrFont
 .data          0x008000dc        0x4 ./src/moddev/keyboard/dev_key.o
 .data          0x008000e0       0x20 ./src/fun/dev_maths.o
                0x008000e0                CRC16TAB
 .data          0x00800100        0x4 ./src/drv/cpm_drv.o
                0x00800100                g_sys_clk
 .data          0x00800104        0x1 ./src/drv/i2c_drv.o
 *fill*         0x00800105        0x3 00
 .data          0x00800108        0x8 ./src/common/alloc.o
                0x00800108                __HEAP_END
                0x0080010c                __HEAP_START
 .data          0x00800110      0x428 D:\software_xqy\CCore_IDE/tool-chain/ccore-elf/mcore-elf/lib/c0_div\libc.a(lib_a-impure.o)
                0x00800110                _impure_ptr
 .data          0x00800538      0x410 D:\software_xqy\CCore_IDE/tool-chain/ccore-elf/mcore-elf/lib/c0_div\libc.a(lib_a-mallocr.o)
                0x00800538                __malloc_sbrk_base
                0x0080053c                __malloc_trim_threshold
                0x00800540                __malloc_av_
 .data          0x00800948        0x4 D:\work\k205_gx\K205_360S\CORE\src\moddev\rfcard_mh1608\libnfc.a(ddi_rfcard_mh1608.o)
 .data          0x0080094c      0x2a0 D:\work\k205_gx\K205_360S\CORE\src\moddev\iccard\libicc.a(dev_iccard.o)
 .data          0x00800bec        0x2 D:\work\k205_gx\K205_360S\CORE\src\moddev\bluetooth\libbt_lib.a(yc1021.o)
                0x00800bec                AttSend_handle
                0x00800bf0                . = ALIGN (0x4)
 *fill*         0x00800bee        0x2 00
                0x00800bf0                _end_data = .

.bss            0x00800bf0     0xa12c load address 0x0042e0f8
                0x00800bf0                _bss_start = .
 *(.bss)
 .bss           0x00800bf0        0x4 ./src/sysdrv/SysTick/systick.o
                0x00800bf0                SystemTick
 .bss           0x00800bf4        0x1 ./src/sysdev/wdt/dev_wdt.o
 *fill*         0x00800bf5        0x3 00
 .bss           0x00800bf8       0x10 ./src/sysdev/usb/dev_usb.o
 .bss           0x00800c08        0x2 ./src/sysdev/uart/dev_uart.o
 *fill*         0x00800c0a        0x2 00
 .bss           0x00800c0c        0xa ./src/sysdev/time/dev_time.o
                0x00800c0c                TimerInterruptFun
 .bss           0x00800c16       0x12 ./src/sysdev/spi/dev_spimaster.o
 .bss           0x00800c28        0x3 ./src/sysdev/adc/dev_adc.o
 *fill*         0x00800c2b        0x1 00
 .bss           0x00800c2c       0xcd ./src/sysbus/usb/drv_usb.o
                0x00800c2c                g_transLens
                0x00800c30                g_RevOffset
                0x00800c34                gp_Ep0_Descriptor
                0x00800c38                g_Ep0Data_Stage
                0x00800c3c                g_EP3BufAddr
                0x00800c40                g_EP2BufAddr
                0x00800c44                g_EP1BufAddr
                0x00800c48                g_uchUSBStatus
                0x00800c49                g_msgflags1
                0x00800c4a                g_msgflags
                0x00800c4c                g_dev_std_req
                0x00800c54                g_bulkPhase
                0x00800c55                g_USBNewAddr
                0x00800c56                g_suspendMode
                0x00800c57                g_usbVer
                0x00800c58                gRxMaxPacket
                0x00800c5a                gTxMaxPacket
                0x00800c5c                gUSBC_fifoReg
                0x00800c60                gUSBC_IdxReg
                0x00800c64                gUSBC_ComReg
                0x00800c68                cdc_ctl_buf
 *fill*         0x00800cf9        0x3 00
 .bss           0x00800cfc      0x800 ./src/sysbus/uart/UART.o
 .bss           0x008014fc        0x4 ./src/sysbus/spi/SPI_MASTER.o
 .bss           0x00801500       0xa8 ./src/security/app/cmd_proc.o
                0x00801500                g_tmp_rand_key
                0x00801530                g_ex_tmp_terminal_info
 .bss           0x008015a8       0x14 ./src/security/app/ex_func.o
                0x008015a8                SN_Globle_Flag
                0x008015ac                g_pin_info
 .bss           0x008015bc        0xc ./src/security/app/protocol.o
 .bss           0x008015c8        0x4 ./src/security/app/sd_tamper.o
                0x008015c8                tamper_reason_record
 .bss           0x008015cc       0x22 ./src/moddrv/power/drv_power.o
                0x008015cc                SysPwr
 *fill*         0x008015ee        0x2 00
 .bss           0x008015f0       0x98 ./src/moddrv/magcard/drv_magcard.o
 .bss           0x00801688        0x8 ./src/moddrv/magcard/mcc_adc.o
                0x00801688                adc_buff
                0x0080168c                mv
 .bss           0x00801690        0x2 ./src/moddrv/lcd/drv_lcd.o
                0x00801690                g_max_dot_row
                0x00801691                g_max_row
 *fill*         0x00801692        0x2 00
 .bss           0x00801694        0x4 ./src/moddrv/keyboard/drv_key.o
                0x00801694                gSaveKeyStatus
 .bss           0x00801698       0x50 ./src/moddrv/beep/drv_beep.o
 .bss           0x008016e8        0x6 ./src/moddev/power/dev_power.o
                0x008016e8                g_wakeup_status
 *fill*         0x008016ee        0x2 00
 .bss           0x008016f0       0x25 ./src/moddev/lcd/dev_lcd.o
                0x008016f0                keyholdflag
                0x008016f4                rcDispRam
                0x008016f8                y_end
                0x008016fa                y_beg
                0x008016fc                x_end
                0x008016fe                x_beg
                0x00801700                LcdConf
                0x00801710                gDispRam
                0x00801714                g_lcd_fd
 *fill*         0x00801715        0x3 00
 .bss           0x00801718       0x2c ./src/moddev/keyboard/dev_key.o
 .bss           0x00801744        0x5 ./src/moddev/bt_update/bt_update.o
                0x00801744                gUpdata
                0x00801748                reset_flag
 *fill*         0x00801749        0x3 00
 .bss           0x0080174c        0xc ./src/moddev/bt_update/mpos_protocol.o
                0x0080174c                mbuff
                0x00801750                protocol_process_e
                0x00801754                deal_data_buff_status_e
 .bss           0x00801758        0x2 ./src/main/main.o
 *fill*         0x0080175a        0x2 00
 .bss           0x0080175c      0x438 ./src/fs/fs_vs.o
                0x0080175c                VfsStructList
                0x00801a7c                GdFsFileStaTmp
                0x00801aa4                Mtd0Pra
                0x00801ac0                RootPra
                0x00801adc                FsMtd1Pra
 .bss           0x00801b94       0x38 ./src/drv/adc_dma.o
 .bss           0x00801bcc      0x9c8 ./src/drv/alg_drv.o
                0x00801bcc                privateKeyRSA
                0x00802150                publicKeyRSA
                0x00802354                stuSignatureS
                0x00802388                stuSignatureR
                0x008023bc                stuPrivKey
                0x008023f0                stuPubKey
                0x00802458                stuEccPrams
 .bss           0x00802594       0x1c ./src/drv/dmac_drv.o
                0x00802594                dma_isr_errflag
                0x00802598                dma_isr_flag
                0x0080259c                m_dma_control
                0x008025a0                m_dma_channel
 .bss           0x008025b0       0x18 ./src/drv/edma_drv.o
                0x008025b0                pvfunc
                0x008025b4                g_Edmac1ChMinDoneFlag
                0x008025b5                g_Edmac0ChMinDoneFlag
 .bss           0x008025c8       0x14 ./src/drv/i2c_drv.o
 .bss           0x008025dc        0x4 ./src/drv/rtc_drv.o
                0x008025dc                g_rtc_int_sta
 .bss           0x008025e0       0x80 ./src/drv/spi_drv.o
                0x008025e0                dma_spi_data
 .bss           0x00802660     0x8034 ./src/common/alloc.o
                0x00802660                totalsize_bak
                0x00802664                coreusedsize_bak
                0x00802668                appusedsize_bak
                0x0080266c                heap
 .bss           0x0080a694       0x18 ./src/common/download.o
                0x0080a694                gdownfiledata
                0x0080a698                CommParseStep
 .bss           0x0080a6ac       0x3e ./src/common/misc.o
                0x0080a6ac                MachineInfo
                0x0080a6b0                AppVersion
                0x0080a6c4                RecoveryVersion
                0x0080a6d8                BootVersion
 *fill*         0x0080a6ea        0x2 00
 .bss           0x0080a6ec       0x34 D:\software_xqy\CCore_IDE/tool-chain/ccore-elf/mcore-elf/lib/c0_div\libc.a(lib_a-mallocr.o)
                0x0080a6ec                __malloc_current_mallinfo
                0x0080a714                __malloc_max_total_mem
                0x0080a718                __malloc_max_sbrked_mem
                0x0080a71c                __malloc_top_pad
 .bss           0x0080a720        0x4 D:\software_xqy\CCore_IDE/tool-chain/ccore-elf/mcore-elf/lib/c0_div\libcmb.a(sbrk.o)
 .bss           0x0080a724       0x18 D:\work\k205_gx\K205_360S\CORE\src\drv\libEflash.a(eflash.o)
 .bss           0x0080a73c       0x10 D:\work\k205_gx\K205_360S\CORE\src\drv\libCUni360S_mcc.a(mcc_decode.o)
                0x0080a73c                _adc_buff_half_end
                0x0080a740                _adc_buff_end
                0x0080a744                _adc_buff_start
                0x0080a748                p_mv
 .bss           0x0080a74c        0x1 D:\work\k205_gx\K205_360S\CORE\src\drv\libCUni360S_mcc.a(mcc_lib.o)
 *fill*         0x0080a74d        0x3 00
 .bss           0x0080a750       0x29 D:\work\k205_gx\K205_360S\CORE\src\drv\libAlgorithm.a(crypt.o)
                0x0080a750                randomStruct
                0x0080a778                dpa_rsa_t
 .bss           0x0080a779        0x1 D:\work\k205_gx\K205_360S\CORE\src\drv\libAlgorithm.a(des.o)
                0x0080a779                dpa_des_t
 *fill*         0x0080a77a        0x2 00
 .bss           0x0080a77c        0x4 D:\work\k205_gx\K205_360S\CORE\src\drv\libAlgorithm.a(lib.o)
                0x0080a77c                moduleReg
 .bss           0x0080a780      0x150 D:\work\k205_gx\K205_360S\CORE\src\security\hal\libcpuhal.a(cpuhal.o)
 .bss           0x0080a8d0        0x6 D:\work\k205_gx\K205_360S\CORE\src\moddev\rfcard_mh1608\libnfc.a(ddi_rfcard_mh1608.o)
 .bss           0x0080a8d6       0x38 D:\work\k205_gx\K205_360S\CORE\src\moddev\rfcard_mh1608\libnfc.a(dev_rfcard_mh1608.o)
 .bss           0x0080a90e       0x23 D:\work\k205_gx\K205_360S\CORE\src\moddev\rfcard_mh1608\libnfc.a(drv_rfcard_mh1608.o)
                0x0080a90e                g_cl_param
 *fill*         0x0080a931        0x3 00
 .bss           0x0080a934        0xe D:\work\k205_gx\K205_360S\CORE\src\moddev\iccard\libicc.a(ddi_iccard.o)
 .bss           0x0080a942        0x2 D:\work\k205_gx\K205_360S\CORE\src\moddev\bluetooth\libbt_lib.a(dev_bt_api.o)
                0x0080a942                bt_open_fd
 .bss           0x0080a944      0x3c9 D:\work\k205_gx\K205_360S\CORE\src\moddev\bluetooth\libbt_lib.a(yc1021.o)
                0x0080a944                bt_paring_info
                0x0080a9bc                yc_packet_event
                0x0080aac0                bt_uart_data
                0x0080acc2                adv_closed_flag
                0x0080acc3                is_BT_init_OK
                0x0080acc4                yc_patch_version
                0x0080acc8                app_to_bt_fifo
                0x0080acdc                bt_to_app_fifo
 *(COMMON)
 *fill*         0x0080ad0d        0x3 00
 COMMON         0x0080ad10        0x4 D:\software_xqy\CCore_IDE/tool-chain/ccore-elf/mcore-elf/lib/c0_div\libc.a(lib_a-reent.o)
                0x0080ad10                errno
                0x0080ad1c                . = (. + 0x8)
 *fill*         0x0080ad14        0x8 00
                0x0080ad1c                _bss_end = .
                0x0080b000                PROVIDE (_end, (STACK_LOCATION - 0x3000))
LOAD ./src/sysdrv/timer/timer.o
LOAD ./src/sysdrv/rtc/RTC.o
LOAD ./src/sysdrv/flash/flash.o
LOAD ./src/sysdrv/SysTick/systick.o
LOAD ./src/sysdrv/ADC/adc.o
LOAD ./src/sysdev/wdt/dev_wdt.o
LOAD ./src/sysdev/usb/dev_usb.o
LOAD ./src/sysdev/uart/dev_uart.o
LOAD ./src/sysdev/time/dev_time.o
LOAD ./src/sysdev/spi/dev_spimaster.o
LOAD ./src/sysdev/spi/dev_spislave.o
LOAD ./src/sysdev/rtc/dev_rtc.o
LOAD ./src/sysdev/gpio/dev_gpio.o
LOAD ./src/sysdev/flash/dev_flash.o
LOAD ./src/sysdev/capture/dev_capture.o
LOAD ./src/sysdev/adc/dev_adc.o
LOAD ./src/sysbus/usb/drv_usb.o
LOAD ./src/sysbus/uart/UART.o
LOAD ./src/sysbus/spi/SPI_MASTER.o
LOAD ./src/sysbus/spi/SPI_SLAVE.o
LOAD ./src/sysbus/i2c/I2C.o
LOAD ./src/sysbus/gpio/gpio.o
LOAD ./src/sysbus/capture/capture.o
LOAD ./src/security/security_common/convertdata.o
LOAD ./src/security/security_common/security_common.o
LOAD ./src/security/secmgr/detect.o
LOAD ./src/security/key/key_dbg.o
LOAD ./src/security/digitalsign/digitalsign_test.o
LOAD ./src/security/app/admin_manage.o
LOAD ./src/security/app/advance.o
LOAD ./src/security/app/cmd_proc.o
LOAD ./src/security/app/ex_func.o
LOAD ./src/security/app/file_auth.o
LOAD ./src/security/app/file_opt.o
LOAD ./src/security/app/pci_func.o
LOAD ./src/security/app/possn.o
LOAD ./src/security/app/protocol.o
LOAD ./src/security/app/rootkey.o
LOAD ./src/security/app/sd_tamper.o
LOAD ./src/security/app/sec_test.o
LOAD ./src/security/api/alg_api.o
LOAD ./src/security/api/mem_api.o
LOAD ./src/security/algorithm/test/algorithm_test.o
LOAD ./src/moddrv/power/drv_power.o
LOAD ./src/moddrv/magcard/drv_magcard.o
LOAD ./src/moddrv/magcard/mcc_adc.o
LOAD ./src/moddrv/lcd/drv_lcd.o
LOAD ./src/moddrv/lcd/drv_lcd_font_data.o
LOAD ./src/moddrv/keyboard/drv_key.o
LOAD ./src/moddrv/beep/drv_beep.o
LOAD ./src/moddev/power/dev_power.o
LOAD ./src/moddev/magcard/ddi_magcard.o
LOAD ./src/moddev/magcard/dev_magcard.o
LOAD ./src/moddev/led/ddi_led.o
LOAD ./src/moddev/lcd/dev_lcd.o
LOAD ./src/moddev/keyboard/dev_key.o
LOAD ./src/moddev/bt_update/bt_update.o
LOAD ./src/moddev/bt_update/crc16.o
LOAD ./src/moddev/bt_update/mpos_protocol.o
LOAD ./src/moddev/beep/dev_beep.o
LOAD ./src/main/main.o
LOAD ./src/main/test.o
LOAD ./src/fun/time/fun_time.o
LOAD ./src/fun/dev_maths.o
LOAD ./src/fs/xgdfs/SysFile.o
LOAD ./src/fs/xgdfs/fs_test.o
LOAD ./src/fs/fs_vs.o
LOAD ./src/drv/adc_dma.o
LOAD ./src/drv/adc_drv.o
LOAD ./src/drv/alg_drv.o
LOAD ./src/drv/cache_drv.o
LOAD ./src/drv/ccm_drv.o
LOAD ./src/drv/cpm_drv.o
LOAD ./src/drv/crc_drv.o
LOAD ./src/drv/dmac_drv.o
LOAD ./src/drv/edma_drv.o
LOAD ./src/drv/eflash_drv.o
LOAD ./src/drv/eport_drv.o
LOAD ./src/drv/ept_drv.o
LOAD ./src/drv/i2c_drv.o
LOAD ./src/drv/pit32_drv.o
LOAD ./src/drv/pit_drv.o
LOAD ./src/drv/pwm_drv.o
LOAD ./src/drv/reset_drv.o
LOAD ./src/drv/rtc_drv.o
LOAD ./src/drv/spi_drv.o
LOAD ./src/drv/tc_drv.o
LOAD ./src/drv/uart_drv.o
LOAD ./src/drv/usb_drv.o
LOAD ./src/drv/usi_drv.o
LOAD ./src/drv/wdt_drv.o
LOAD ./src/common/alloc.o
LOAD ./src/common/debug.o
LOAD ./src/common/delay.o
LOAD ./src/common/download.o
LOAD ./src/common/misc.o
LOAD ./src/common/syscfg.o
LOAD ./src/common/update.o
LOAD ./src/ccore/AsmToC.o
LOAD ./src/ccore/Memory_API.o
LOAD ./src/ccore/crt0.o
LOAD ./src/ccore/interrupt.o
LOAD ./src/ccore/interrupt_support.o
LOAD ./src/ccore/vector_rce.o
LOAD ./src/ccore/vector_table.o
LOAD ./src/api/dev_api.o
START GROUP
LOAD D:\software_xqy\CCore_IDE/tool-chain/ccore-elf/lib/gcc/mcore-elf/4.6.0/c0_div\libgcc.a
LOAD D:\software_xqy\CCore_IDE/tool-chain/ccore-elf/mcore-elf/lib/c0_div\libc.a
LOAD D:\software_xqy\CCore_IDE/tool-chain/ccore-elf/mcore-elf/lib/c0_div\libg.a
LOAD D:\software_xqy\CCore_IDE/tool-chain/ccore-elf/mcore-elf/lib/c0_div\libm.a
LOAD D:\software_xqy\CCore_IDE/tool-chain/ccore-elf/mcore-elf/lib/c0_div\libcmb.a
LOAD D:\software_xqy\CCore_IDE/tool-chain/ccore-elf/mcore-elf/lib/c0_div\libsim.a
LOAD D:\software_xqy\CCore_IDE/tool-chain/ccore-elf/mcore-elf/lib/c0_div\libnosys.a
LOAD D:\software_xqy\CCore_IDE/tool-chain/ccore-elf/mcore-elf/lib/c0_div\libstdc++.a
LOAD D:\work\k205_gx\K205_360S\CORE\src\ccore\libBootSwitch.a
LOAD D:\work\k205_gx\K205_360S\CORE\src\ccore\libReadChipSn.a
LOAD D:\work\k205_gx\K205_360S\CORE\src\drv\libEflash.a
LOAD D:\work\k205_gx\K205_360S\CORE\src\drv\libCUni360S_mcc.a
LOAD D:\work\k205_gx\K205_360S\CORE\src\drv\libAlgorithm.a
LOAD D:\work\k205_gx\K205_360S\CORE\src\security\algorithm\libAlg.a
LOAD D:\work\k205_gx\K205_360S\CORE\src\security\hal\libcpuhal.a
LOAD D:\work\k205_gx\K205_360S\CORE\src\security\pinpad\libFackey.a
LOAD D:\work\k205_gx\K205_360S\CORE\src\security\pinpad\libinnerkey.a
LOAD D:\work\k205_gx\K205_360S\CORE\src\security\pinpad\libpinpad.a
LOAD D:\work\k205_gx\K205_360S\CORE\src\security\sec_datastore\libsecstore.a
LOAD D:\work\k205_gx\K205_360S\CORE\src\moddev\rfcard_mh1608\libnfc.a
LOAD D:\work\k205_gx\K205_360S\CORE\src\moddev\iccard\libicc.a
LOAD D:\work\k205_gx\K205_360S\CORE\src\moddev\bluetooth\libbt_lib.a
END GROUP
OUTPUT(core.elf elf32-mcore-little)

.debug_frame    0x00000000     0x8c74
 .debug_frame   0x00000000       0x84 ./src/sysdrv/timer/timer.o
 .debug_frame   0x00000084       0xc4 ./src/sysdrv/rtc/RTC.o
 .debug_frame   0x00000148       0xc4 ./src/sysdrv/flash/flash.o
 .debug_frame   0x0000020c       0x7c ./src/sysdrv/SysTick/systick.o
 .debug_frame   0x00000288       0x5c ./src/sysdev/wdt/dev_wdt.o
 .debug_frame   0x000002e4      0x11c ./src/sysdev/usb/dev_usb.o
 .debug_frame   0x00000400       0xfc ./src/sysdev/uart/dev_uart.o
 .debug_frame   0x000004fc       0xfc ./src/sysdev/time/dev_time.o
 .debug_frame   0x000005f8       0x8c ./src/sysdev/spi/dev_spimaster.o
 .debug_frame   0x00000684      0x104 ./src/sysdev/rtc/dev_rtc.o
 .debug_frame   0x00000788       0x8c ./src/sysdev/gpio/dev_gpio.o
 .debug_frame   0x00000814       0xbc ./src/sysdev/flash/dev_flash.o
 .debug_frame   0x000008d0       0x88 ./src/sysdev/adc/dev_adc.o
 .debug_frame   0x00000958      0x304 ./src/sysbus/usb/drv_usb.o
 .debug_frame   0x00000c5c       0xd4 ./src/sysbus/uart/UART.o
 .debug_frame   0x00000d30       0xbc ./src/sysbus/spi/SPI_MASTER.o
 .debug_frame   0x00000dec      0x164 ./src/sysbus/gpio/gpio.o
 .debug_frame   0x00000f50       0xc4 ./src/security/security_common/convertdata.o
 .debug_frame   0x00001014       0x64 ./src/security/security_common/security_common.o
 .debug_frame   0x00001078      0x12c ./src/security/secmgr/detect.o
 .debug_frame   0x000011a4       0x94 ./src/security/app/cmd_proc.o
 .debug_frame   0x00001238      0x198 ./src/security/app/ex_func.o
 .debug_frame   0x000013d0      0x128 ./src/security/app/file_auth.o
 .debug_frame   0x000014f8      0x130 ./src/security/app/file_opt.o
 .debug_frame   0x00001628       0xac ./src/security/app/pci_func.o
 .debug_frame   0x000016d4      0x13c ./src/security/app/protocol.o
 .debug_frame   0x00001810      0x1c8 ./src/security/app/rootkey.o
 .debug_frame   0x000019d8      0x1a0 ./src/security/app/sd_tamper.o
 .debug_frame   0x00001b78      0x2bc ./src/security/api/alg_api.o
 .debug_frame   0x00001e34       0x44 ./src/security/api/mem_api.o
 .debug_frame   0x00001e78       0xf4 ./src/moddrv/power/drv_power.o
 .debug_frame   0x00001f6c       0x68 ./src/moddrv/magcard/drv_magcard.o
 .debug_frame   0x00001fd4       0x64 ./src/moddrv/magcard/mcc_adc.o
 .debug_frame   0x00002038      0x168 ./src/moddrv/lcd/drv_lcd.o
 .debug_frame   0x000021a0       0x58 ./src/moddrv/lcd/drv_lcd_font_data.o
 .debug_frame   0x000021f8       0xd0 ./src/moddrv/keyboard/drv_key.o
 .debug_frame   0x000022c8       0xfc ./src/moddrv/beep/drv_beep.o
 .debug_frame   0x000023c4      0x16c ./src/moddev/power/dev_power.o
 .debug_frame   0x00002530       0x98 ./src/moddev/magcard/ddi_magcard.o
 .debug_frame   0x000025c8       0xac ./src/moddev/magcard/dev_magcard.o
 .debug_frame   0x00002674       0x64 ./src/moddev/led/ddi_led.o
 .debug_frame   0x000026d8      0x410 ./src/moddev/lcd/dev_lcd.o
 .debug_frame   0x00002ae8      0x170 ./src/moddev/keyboard/dev_key.o
 .debug_frame   0x00002c58      0x10c ./src/moddev/bt_update/bt_update.o
 .debug_frame   0x00002d64       0x24 ./src/moddev/bt_update/crc16.o
 .debug_frame   0x00002d88       0xec ./src/moddev/bt_update/mpos_protocol.o
 .debug_frame   0x00002e74       0xdc ./src/moddev/beep/dev_beep.o
 .debug_frame   0x00002f50       0x74 ./src/main/main.o
 .debug_frame   0x00002fc4      0x35c ./src/main/test.o
 .debug_frame   0x00003320      0x36c ./src/fun/dev_maths.o
 .debug_frame   0x0000368c      0x2c8 ./src/fs/fs_vs.o
 .debug_frame   0x00003954       0x8c ./src/drv/adc_dma.o
 .debug_frame   0x000039e0       0x9c ./src/drv/adc_drv.o
 .debug_frame   0x00003a7c      0x2dc ./src/drv/alg_drv.o
 .debug_frame   0x00003d58       0x24 ./src/drv/cache_drv.o
 .debug_frame   0x00003d7c       0x74 ./src/drv/ccm_drv.o
 .debug_frame   0x00003df0      0x13c ./src/drv/cpm_drv.o
 .debug_frame   0x00003f2c       0x74 ./src/drv/dmac_drv.o
 .debug_frame   0x00003fa0      0x100 ./src/drv/edma_drv.o
 .debug_frame   0x000040a0       0x44 ./src/drv/eflash_drv.o
 .debug_frame   0x000040e4      0x1a4 ./src/drv/eport_drv.o
 .debug_frame   0x00004288      0x134 ./src/drv/i2c_drv.o
 .debug_frame   0x000043bc       0x7c ./src/drv/pit32_drv.o
 .debug_frame   0x00004438       0x84 ./src/drv/pit_drv.o
 .debug_frame   0x000044bc       0xd4 ./src/drv/pwm_drv.o
 .debug_frame   0x00004590       0x34 ./src/drv/reset_drv.o
 .debug_frame   0x000045c4       0x90 ./src/drv/rtc_drv.o
 .debug_frame   0x00004654      0x13c ./src/drv/spi_drv.o
 .debug_frame   0x00004790       0x84 ./src/drv/tc_drv.o
 .debug_frame   0x00004814       0x44 ./src/drv/uart_drv.o
 .debug_frame   0x00004858      0x164 ./src/drv/usi_drv.o
 .debug_frame   0x000049bc       0x54 ./src/drv/wdt_drv.o
 .debug_frame   0x00004a10       0xd0 ./src/common/alloc.o
 .debug_frame   0x00004ae0      0x1b4 ./src/common/debug.o
 .debug_frame   0x00004c94       0x54 ./src/common/delay.o
 .debug_frame   0x00004ce8       0xe0 ./src/common/download.o
 .debug_frame   0x00004dc8       0xdc ./src/common/misc.o
 .debug_frame   0x00004ea4      0x1fc ./src/common/syscfg.o
 .debug_frame   0x000050a0      0x12c ./src/common/update.o
 .debug_frame   0x000051cc       0x74 ./src/ccore/AsmToC.o
 .debug_frame   0x00005240       0x54 ./src/ccore/Memory_API.o
 .debug_frame   0x00005294       0x4c ./src/ccore/interrupt.o
 .debug_frame   0x000052e0       0xb4 ./src/ccore/vector_rce.o
 .debug_frame   0x00005394       0x64 ./src/api/dev_api.o
 .debug_frame   0x000053f8       0x70 D:\software_xqy\CCore_IDE/tool-chain/ccore-elf/lib/gcc/mcore-elf/4.6.0/c0_div\libgcc.a(_addsub_df.o)
 .debug_frame   0x00005468       0x48 D:\software_xqy\CCore_IDE/tool-chain/ccore-elf/lib/gcc/mcore-elf/4.6.0/c0_div\libgcc.a(_mul_df.o)
 .debug_frame   0x000054b0       0x40 D:\software_xqy\CCore_IDE/tool-chain/ccore-elf/lib/gcc/mcore-elf/4.6.0/c0_div\libgcc.a(_div_df.o)
 .debug_frame   0x000054f0       0x30 D:\software_xqy\CCore_IDE/tool-chain/ccore-elf/lib/gcc/mcore-elf/4.6.0/c0_div\libgcc.a(_eq_df.o)
 .debug_frame   0x00005520       0x30 D:\software_xqy\CCore_IDE/tool-chain/ccore-elf/lib/gcc/mcore-elf/4.6.0/c0_div\libgcc.a(_ne_df.o)
 .debug_frame   0x00005550       0x30 D:\software_xqy\CCore_IDE/tool-chain/ccore-elf/lib/gcc/mcore-elf/4.6.0/c0_div\libgcc.a(_gt_df.o)
 .debug_frame   0x00005580       0x30 D:\software_xqy\CCore_IDE/tool-chain/ccore-elf/lib/gcc/mcore-elf/4.6.0/c0_div\libgcc.a(_lt_df.o)
 .debug_frame   0x000055b0       0x34 D:\software_xqy\CCore_IDE/tool-chain/ccore-elf/lib/gcc/mcore-elf/4.6.0/c0_div\libgcc.a(_si_to_df.o)
 .debug_frame   0x000055e4       0x3c D:\software_xqy\CCore_IDE/tool-chain/ccore-elf/lib/gcc/mcore-elf/4.6.0/c0_div\libgcc.a(_df_to_si.o)
 .debug_frame   0x00005620       0x2c D:\software_xqy\CCore_IDE/tool-chain/ccore-elf/lib/gcc/mcore-elf/4.6.0/c0_div\libgcc.a(_muldi3.o)
 .debug_frame   0x0000564c       0x24 D:\software_xqy\CCore_IDE/tool-chain/ccore-elf/lib/gcc/mcore-elf/4.6.0/c0_div\libgcc.a(_clzsi2.o)
 .debug_frame   0x00005670       0x34 D:\software_xqy\CCore_IDE/tool-chain/ccore-elf/lib/gcc/mcore-elf/4.6.0/c0_div\libgcc.a(_pack_df.o)
 .debug_frame   0x000056a4       0x3c D:\software_xqy\CCore_IDE/tool-chain/ccore-elf/lib/gcc/mcore-elf/4.6.0/c0_div\libgcc.a(_unpack_df.o)
 .debug_frame   0x000056e0       0x24 D:\software_xqy\CCore_IDE/tool-chain/ccore-elf/lib/gcc/mcore-elf/4.6.0/c0_div\libgcc.a(_fpcmp_parts_df.o)
 .debug_frame   0x00005704       0x30 D:\software_xqy\CCore_IDE/tool-chain/ccore-elf/lib/gcc/mcore-elf/4.6.0/c0_div\libgcc.a(_lshrdi3.o)
 .debug_frame   0x00005734       0x30 D:\software_xqy\CCore_IDE/tool-chain/ccore-elf/lib/gcc/mcore-elf/4.6.0/c0_div\libgcc.a(_ashldi3.o)
 .debug_frame   0x00005764       0x28 D:\software_xqy\CCore_IDE/tool-chain/ccore-elf/mcore-elf/lib/c0_div\libc.a(lib_a-abort.o)
 .debug_frame   0x0000578c       0x24 D:\software_xqy\CCore_IDE/tool-chain/ccore-elf/mcore-elf/lib/c0_div\libc.a(lib_a-memcmp.o)
 .debug_frame   0x000057b0       0x30 D:\software_xqy\CCore_IDE/tool-chain/ccore-elf/mcore-elf/lib/c0_div\libc.a(lib_a-memset.o)
 .debug_frame   0x000057e0       0x58 D:\software_xqy\CCore_IDE/tool-chain/ccore-elf/mcore-elf/lib/c0_div\libc.a(lib_a-s_modf.o)
 .debug_frame   0x00005838       0xec D:\software_xqy\CCore_IDE/tool-chain/ccore-elf/mcore-elf/lib/c0_div\libc.a(lib_a-signal.o)
 .debug_frame   0x00005924       0x48 D:\software_xqy\CCore_IDE/tool-chain/ccore-elf/mcore-elf/lib/c0_div\libc.a(lib_a-signalr.o)
 .debug_frame   0x0000596c       0x2c D:\software_xqy\CCore_IDE/tool-chain/ccore-elf/mcore-elf/lib/c0_div\libc.a(lib_a-strcat.o)
 .debug_frame   0x00005998       0x24 D:\software_xqy\CCore_IDE/tool-chain/ccore-elf/mcore-elf/lib/c0_div\libc.a(lib_a-strcmp.o)
 .debug_frame   0x000059bc       0x34 D:\software_xqy\CCore_IDE/tool-chain/ccore-elf/mcore-elf/lib/c0_div\libc.a(lib_a-strcpy.o)
 .debug_frame   0x000059f0       0x24 D:\software_xqy\CCore_IDE/tool-chain/ccore-elf/mcore-elf/lib/c0_div\libc.a(lib_a-strlen.o)
 .debug_frame   0x00005a14       0x44 D:\software_xqy\CCore_IDE/tool-chain/ccore-elf/mcore-elf/lib/c0_div\libc.a(lib_a-mallocr.o)
 .debug_frame   0x00005a58       0x34 D:\software_xqy\CCore_IDE/tool-chain/ccore-elf/mcore-elf/lib/c0_div\libc.a(lib_a-mlock.o)
 .debug_frame   0x00005a8c       0x68 D:\software_xqy\CCore_IDE/tool-chain/ccore-elf/mcore-elf/lib/c0_div\libc.a(lib_a-reent.o)
 .debug_frame   0x00005af4       0x30 D:\software_xqy\CCore_IDE/tool-chain/ccore-elf/mcore-elf/lib/c0_div\libc.a(lib_a-sbrkr.o)
 .debug_frame   0x00005b24       0x50 D:\software_xqy\CCore_IDE/tool-chain/ccore-elf/mcore-elf/lib/c0_div\libc.a(lib_a-freer.o)
 .debug_frame   0x00005b74       0x30 D:\software_xqy\CCore_IDE/tool-chain/ccore-elf/mcore-elf/lib/c0_div\libcmb.a(sbrk.o)
 .debug_frame   0x00005ba4       0x2c D:\software_xqy\CCore_IDE/tool-chain/ccore-elf/mcore-elf/lib/c0_div\libcmb.a(write.o)
 .debug_frame   0x00005bd0       0x24 D:\software_xqy\CCore_IDE/tool-chain/ccore-elf/mcore-elf/lib/c0_div\libcmb.a(cmb-exit.o)
 .debug_frame   0x00005bf4       0x24 D:\software_xqy\CCore_IDE/tool-chain/ccore-elf/mcore-elf/lib/c0_div\libcmb.a(cmb-outbyte.o)
 .debug_frame   0x00005c18       0x24 D:\software_xqy\CCore_IDE/tool-chain/ccore-elf/mcore-elf/lib/c0_div\libcmb.a(getpid.o)
 .debug_frame   0x00005c3c       0x30 D:\software_xqy\CCore_IDE/tool-chain/ccore-elf/mcore-elf/lib/c0_div\libcmb.a(kill.o)
 .debug_frame   0x00005c6c      0x2c0 D:\work\k205_gx\K205_360S\CORE\src\drv\libEflash.a(eflash.o)
 .debug_frame   0x00005f2c       0x4c D:\work\k205_gx\K205_360S\CORE\src\drv\libEflash.a(cache.o)
 .debug_frame   0x00005f78      0x190 D:\work\k205_gx\K205_360S\CORE\src\drv\libAlgorithm.a(crypt.o)
 .debug_frame   0x00006108      0x15c D:\work\k205_gx\K205_360S\CORE\src\drv\libAlgorithm.a(des.o)
 .debug_frame   0x00006264      0x4fc D:\work\k205_gx\K205_360S\CORE\src\drv\libAlgorithm.a(lib.o)
 .debug_frame   0x00006760       0x50 D:\work\k205_gx\K205_360S\CORE\src\drv\libAlgorithm.a(sha.o)
 .debug_frame   0x000067b0      0x210 D:\work\k205_gx\K205_360S\CORE\src\drv\libAlgorithm.a(bigint.o)
 .debug_frame   0x000069c0      0x3a0 D:\work\k205_gx\K205_360S\CORE\src\security\algorithm\libAlg.a(algorithm.o)
 .debug_frame   0x00006d60      0x1ac D:\work\k205_gx\K205_360S\CORE\src\security\algorithm\libAlg.a(algorithm_hardware.o)
 .debug_frame   0x00006f0c      0x330 D:\work\k205_gx\K205_360S\CORE\src\security\hal\libcpuhal.a(cpuhal.o)
 .debug_frame   0x0000723c      0x16c D:\work\k205_gx\K205_360S\CORE\src\security\hal\libcpuhal.a(pci_drv.o)
 .debug_frame   0x000073a8       0xe0 D:\work\k205_gx\K205_360S\CORE\src\security\sec_datastore\libsecstore.a(dev_secstore.o)
 .debug_frame   0x00007488       0xa4 D:\work\k205_gx\K205_360S\CORE\src\security\sec_datastore\libsecstore.a(dev_secstore_key.o)
 .debug_frame   0x0000752c       0xfc D:\work\k205_gx\K205_360S\CORE\src\moddev\rfcard_mh1608\libnfc.a(ddi_rfcard_mh1608.o)
 .debug_frame   0x00007628      0x42c D:\work\k205_gx\K205_360S\CORE\src\moddev\rfcard_mh1608\libnfc.a(dev_rfcard_mh1608.o)
 .debug_frame   0x00007a54      0x32c D:\work\k205_gx\K205_360S\CORE\src\moddev\rfcard_mh1608\libnfc.a(drv_rfcard_mh1608.o)
 .debug_frame   0x00007d80       0xd4 D:\work\k205_gx\K205_360S\CORE\src\moddev\iccard\libicc.a(ddi_iccard.o)
 .debug_frame   0x00007e54      0x254 D:\work\k205_gx\K205_360S\CORE\src\moddev\iccard\libicc.a(dev_iccard.o)
 .debug_frame   0x000080a8      0x22c D:\work\k205_gx\K205_360S\CORE\src\moddev\iccard\libicc.a(drv_iccard.o)
 .debug_frame   0x000082d4      0x19c D:\work\k205_gx\K205_360S\CORE\src\moddev\iccard\libicc.a(icc_hardware.o)
 .debug_frame   0x00008470       0xec D:\work\k205_gx\K205_360S\CORE\src\moddev\bluetooth\libbt_lib.a(dev_bt_api.o)
 .debug_frame   0x0000855c      0x648 D:\work\k205_gx\K205_360S\CORE\src\moddev\bluetooth\libbt_lib.a(yc1021.o)
 .debug_frame   0x00008ba4       0xac D:\work\k205_gx\K205_360S\CORE\src\moddev\bluetooth\libbt_lib.a(app_fifo.o)
 .debug_frame   0x00008c50       0x24 D:\work\k205_gx\K205_360S\CORE\src\ccore\libReadChipSn.a(LibReadChipSN.o)

.debug_info     0x00000000    0x400b2
 .debug_info    0x00000000      0x3b5 ./src/sysdrv/timer/timer.o
 .debug_info    0x000003b5      0x5c8 ./src/sysdrv/rtc/RTC.o
 .debug_info    0x0000097d      0x353 ./src/sysdrv/flash/flash.o
 .debug_info    0x00000cd0      0x1d1 ./src/sysdrv/SysTick/systick.o
 .debug_info    0x00000ea1       0xd1 ./src/sysdev/wdt/dev_wdt.o
 .debug_info    0x00000f72      0x7c1 ./src/sysdev/usb/dev_usb.o
 .debug_info    0x00001733      0x397 ./src/sysdev/uart/dev_uart.o
 .debug_info    0x00001aca      0x477 ./src/sysdev/time/dev_time.o
 .debug_info    0x00001f41      0x285 ./src/sysdev/spi/dev_spimaster.o
 .debug_info    0x000021c6      0x549 ./src/sysdev/rtc/dev_rtc.o
 .debug_info    0x0000270f      0x3ab ./src/sysdev/gpio/dev_gpio.o
 .debug_info    0x00002aba      0x512 ./src/sysdev/flash/dev_flash.o
 .debug_info    0x00002fcc      0x29c ./src/sysdev/adc/dev_adc.o
 .debug_info    0x00003268     0x16d4 ./src/sysbus/usb/drv_usb.o
 .debug_info    0x0000493c      0x70d ./src/sysbus/uart/UART.o
 .debug_info    0x00005049      0x5fa ./src/sysbus/spi/SPI_MASTER.o
 .debug_info    0x00005643      0xadb ./src/sysbus/gpio/gpio.o
 .debug_info    0x0000611e      0x5df ./src/security/security_common/convertdata.o
 .debug_info    0x000066fd      0x22e ./src/security/security_common/security_common.o
 .debug_info    0x0000692b      0x30d ./src/security/secmgr/detect.o
 .debug_info    0x00006c38       0xe1 ./src/security/key/key_dbg.o
 .debug_info    0x00006d19      0x8c6 ./src/security/app/cmd_proc.o
 .debug_info    0x000075df      0x8f6 ./src/security/app/ex_func.o
 .debug_info    0x00007ed5      0xa76 ./src/security/app/file_auth.o
 .debug_info    0x0000894b      0x5d2 ./src/security/app/file_opt.o
 .debug_info    0x00008f1d      0x2a7 ./src/security/app/pci_func.o
 .debug_info    0x000091c4      0x8dd ./src/security/app/protocol.o
 .debug_info    0x00009aa1      0x8d9 ./src/security/app/rootkey.o
 .debug_info    0x0000a37a      0x89e ./src/security/app/sd_tamper.o
 .debug_info    0x0000ac18     0x1023 ./src/security/api/alg_api.o
 .debug_info    0x0000bc3b      0x1ea ./src/security/api/mem_api.o
 .debug_info    0x0000be25      0x555 ./src/moddrv/power/drv_power.o
 .debug_info    0x0000c37a      0x3c5 ./src/moddrv/magcard/drv_magcard.o
 .debug_info    0x0000c73f      0x453 ./src/moddrv/magcard/mcc_adc.o
 .debug_info    0x0000cb92      0x4e8 ./src/moddrv/lcd/drv_lcd.o
 .debug_info    0x0000d07a      0x410 ./src/moddrv/lcd/drv_lcd_font_data.o
 .debug_info    0x0000d48a      0x396 ./src/moddrv/keyboard/drv_key.o
 .debug_info    0x0000d820      0x3b0 ./src/moddrv/beep/drv_beep.o
 .debug_info    0x0000dbd0      0x945 ./src/moddev/power/dev_power.o
 .debug_info    0x0000e515      0x2d8 ./src/moddev/magcard/ddi_magcard.o
 .debug_info    0x0000e7ed      0x20c ./src/moddev/magcard/dev_magcard.o
 .debug_info    0x0000e9f9      0x160 ./src/moddev/led/ddi_led.o
 .debug_info    0x0000eb59     0x1a21 ./src/moddev/lcd/dev_lcd.o
 .debug_info    0x0001057a      0x752 ./src/moddev/keyboard/dev_key.o
 .debug_info    0x00010ccc      0xeb6 ./src/moddev/bt_update/bt_update.o
 .debug_info    0x00011b82       0xf7 ./src/moddev/bt_update/crc16.o
 .debug_info    0x00011c79      0x89f ./src/moddev/bt_update/mpos_protocol.o
 .debug_info    0x00012518      0x235 ./src/moddev/beep/dev_beep.o
 .debug_info    0x0001274d      0x42d ./src/main/main.o
 .debug_info    0x00012b7a     0x193f ./src/main/test.o
 .debug_info    0x000144b9     0x10cb ./src/fun/dev_maths.o
 .debug_info    0x00015584     0x10f3 ./src/fs/fs_vs.o
 .debug_info    0x00016677      0x867 ./src/drv/adc_dma.o
 .debug_info    0x00016ede      0x7d7 ./src/drv/adc_drv.o
 .debug_info    0x000176b5     0x18d4 ./src/drv/alg_drv.o
 .debug_info    0x00018f89      0x166 ./src/drv/cache_drv.o
 .debug_info    0x000190ef      0x2a4 ./src/drv/ccm_drv.o
 .debug_info    0x00019393      0x64a ./src/drv/cpm_drv.o
 .debug_info    0x000199dd      0x716 ./src/drv/dmac_drv.o
 .debug_info    0x0001a0f3      0x5df ./src/drv/edma_drv.o
 .debug_info    0x0001a6d2       0xaf ./src/drv/eflash_drv.o
 .debug_info    0x0001a781      0x709 ./src/drv/eport_drv.o
 .debug_info    0x0001ae8a      0x702 ./src/drv/i2c_drv.o
 .debug_info    0x0001b58c      0x26d ./src/drv/pit32_drv.o
 .debug_info    0x0001b7f9      0x279 ./src/drv/pit_drv.o
 .debug_info    0x0001ba72      0x8d4 ./src/drv/pwm_drv.o
 .debug_info    0x0001c346      0x109 ./src/drv/reset_drv.o
 .debug_info    0x0001c44f      0x34e ./src/drv/rtc_drv.o
 .debug_info    0x0001c79d      0x849 ./src/drv/spi_drv.o
 .debug_info    0x0001cfe6      0x1f8 ./src/drv/tc_drv.o
 .debug_info    0x0001d1de      0x314 ./src/drv/uart_drv.o
 .debug_info    0x0001d4f2      0x806 ./src/drv/usi_drv.o
 .debug_info    0x0001dcf8      0x135 ./src/drv/wdt_drv.o
 .debug_info    0x0001de2d      0x53a ./src/common/alloc.o
 .debug_info    0x0001e367     0x11d2 ./src/common/debug.o
 .debug_info    0x0001f539      0x135 ./src/common/delay.o
 .debug_info    0x0001f66e      0xd21 ./src/common/download.o
 .debug_info    0x0002038f      0x77d ./src/common/misc.o
 .debug_info    0x00020b0c      0xc78 ./src/common/syscfg.o
 .debug_info    0x00021784      0x7cb ./src/common/update.o
 .debug_info    0x00021f4f      0x10b ./src/ccore/AsmToC.o
 .debug_info    0x0002205a      0x1af ./src/ccore/Memory_API.o
 .debug_info    0x00022209      0x16d ./src/ccore/interrupt.o
 .debug_info    0x00022376      0x2ff ./src/ccore/vector_rce.o
 .debug_info    0x00022675       0x56 ./src/ccore/vector_table.o
 .debug_info    0x000226cb     0x2034 ./src/api/dev_api.o
 .debug_info    0x000246ff      0x41a D:\software_xqy\CCore_IDE/tool-chain/ccore-elf/lib/gcc/mcore-elf/4.6.0/c0_div\libgcc.a(_addsub_df.o)
 .debug_info    0x00024b19      0x428 D:\software_xqy\CCore_IDE/tool-chain/ccore-elf/lib/gcc/mcore-elf/4.6.0/c0_div\libgcc.a(_mul_df.o)
 .debug_info    0x00024f41      0x343 D:\software_xqy\CCore_IDE/tool-chain/ccore-elf/lib/gcc/mcore-elf/4.6.0/c0_div\libgcc.a(_div_df.o)
 .debug_info    0x00025284      0x24f D:\software_xqy\CCore_IDE/tool-chain/ccore-elf/lib/gcc/mcore-elf/4.6.0/c0_div\libgcc.a(_eq_df.o)
 .debug_info    0x000254d3      0x24f D:\software_xqy\CCore_IDE/tool-chain/ccore-elf/lib/gcc/mcore-elf/4.6.0/c0_div\libgcc.a(_ne_df.o)
 .debug_info    0x00025722      0x24f D:\software_xqy\CCore_IDE/tool-chain/ccore-elf/lib/gcc/mcore-elf/4.6.0/c0_div\libgcc.a(_gt_df.o)
 .debug_info    0x00025971      0x24f D:\software_xqy\CCore_IDE/tool-chain/ccore-elf/lib/gcc/mcore-elf/4.6.0/c0_div\libgcc.a(_lt_df.o)
 .debug_info    0x00025bc0      0x238 D:\software_xqy\CCore_IDE/tool-chain/ccore-elf/lib/gcc/mcore-elf/4.6.0/c0_div\libgcc.a(_si_to_df.o)
 .debug_info    0x00025df8      0x26a D:\software_xqy\CCore_IDE/tool-chain/ccore-elf/lib/gcc/mcore-elf/4.6.0/c0_div\libgcc.a(_df_to_si.o)
 .debug_info    0x00026062      0x163 D:\software_xqy\CCore_IDE/tool-chain/ccore-elf/lib/gcc/mcore-elf/4.6.0/c0_div\libgcc.a(_thenan_df.o)
 .debug_info    0x000261c5      0x206 D:\software_xqy\CCore_IDE/tool-chain/ccore-elf/lib/gcc/mcore-elf/4.6.0/c0_div\libgcc.a(_muldi3.o)
 .debug_info    0x000263cb      0x135 D:\software_xqy\CCore_IDE/tool-chain/ccore-elf/lib/gcc/mcore-elf/4.6.0/c0_div\libgcc.a(_clzsi2.o)
 .debug_info    0x00026500      0x295 D:\software_xqy\CCore_IDE/tool-chain/ccore-elf/lib/gcc/mcore-elf/4.6.0/c0_div\libgcc.a(_pack_df.o)
 .debug_info    0x00026795      0x21f D:\software_xqy\CCore_IDE/tool-chain/ccore-elf/lib/gcc/mcore-elf/4.6.0/c0_div\libgcc.a(_unpack_df.o)
 .debug_info    0x000269b4      0x1f3 D:\software_xqy\CCore_IDE/tool-chain/ccore-elf/lib/gcc/mcore-elf/4.6.0/c0_div\libgcc.a(_fpcmp_parts_df.o)
 .debug_info    0x00026ba7      0x190 D:\software_xqy\CCore_IDE/tool-chain/ccore-elf/lib/gcc/mcore-elf/4.6.0/c0_div\libgcc.a(_lshrdi3.o)
 .debug_info    0x00026d37      0x190 D:\software_xqy\CCore_IDE/tool-chain/ccore-elf/lib/gcc/mcore-elf/4.6.0/c0_div\libgcc.a(_ashldi3.o)
 .debug_info    0x00026ec7       0xb4 D:\software_xqy\CCore_IDE/tool-chain/ccore-elf/lib/gcc/mcore-elf/4.6.0/c0_div\libgcc.a(_clz.o)
 .debug_info    0x00026f7b       0x88 D:\software_xqy\CCore_IDE/tool-chain/ccore-elf/mcore-elf/lib/c0_div\libc.a(lib_a-abort.o)
 .debug_info    0x00027003      0x10f D:\software_xqy\CCore_IDE/tool-chain/ccore-elf/mcore-elf/lib/c0_div\libc.a(lib_a-memcmp.o)
 .debug_info    0x00027112      0x114 D:\software_xqy\CCore_IDE/tool-chain/ccore-elf/mcore-elf/lib/c0_div\libc.a(lib_a-memset.o)
 .debug_info    0x00027226      0x2e6 D:\software_xqy\CCore_IDE/tool-chain/ccore-elf/mcore-elf/lib/c0_div\libc.a(lib_a-s_modf.o)
 .debug_info    0x0002750c      0xb5e D:\software_xqy\CCore_IDE/tool-chain/ccore-elf/mcore-elf/lib/c0_div\libc.a(lib_a-signal.o)
 .debug_info    0x0002806a      0x9f3 D:\software_xqy\CCore_IDE/tool-chain/ccore-elf/mcore-elf/lib/c0_div\libc.a(lib_a-signalr.o)
 .debug_info    0x00028a5d       0xe6 D:\software_xqy\CCore_IDE/tool-chain/ccore-elf/mcore-elf/lib/c0_div\libc.a(lib_a-strcat.o)
 .debug_info    0x00028b43       0xd9 D:\software_xqy\CCore_IDE/tool-chain/ccore-elf/mcore-elf/lib/c0_div\libc.a(lib_a-strcmp.o)
 .debug_info    0x00028c1c      0x10d D:\software_xqy\CCore_IDE/tool-chain/ccore-elf/mcore-elf/lib/c0_div\libc.a(lib_a-strcpy.o)
 .debug_info    0x00028d29       0xd9 D:\software_xqy\CCore_IDE/tool-chain/ccore-elf/mcore-elf/lib/c0_div\libc.a(lib_a-strlen.o)
 .debug_info    0x00028e02      0x965 D:\software_xqy\CCore_IDE/tool-chain/ccore-elf/mcore-elf/lib/c0_div\libc.a(lib_a-impure.o)
 .debug_info    0x00029767      0xd6a D:\software_xqy\CCore_IDE/tool-chain/ccore-elf/mcore-elf/lib/c0_div\libc.a(lib_a-mallocr.o)
 .debug_info    0x0002a4d1      0x97f D:\software_xqy\CCore_IDE/tool-chain/ccore-elf/mcore-elf/lib/c0_div\libc.a(lib_a-mlock.o)
 .debug_info    0x0002ae50      0xa63 D:\software_xqy\CCore_IDE/tool-chain/ccore-elf/mcore-elf/lib/c0_div\libc.a(lib_a-reent.o)
 .debug_info    0x0002b8b3      0x9ab D:\software_xqy\CCore_IDE/tool-chain/ccore-elf/mcore-elf/lib/c0_div\libc.a(lib_a-sbrkr.o)
 .debug_info    0x0002c25e      0xc3f D:\software_xqy\CCore_IDE/tool-chain/ccore-elf/mcore-elf/lib/c0_div\libc.a(lib_a-freer.o)
 .debug_info    0x0002ce9d      0x13b D:\software_xqy\CCore_IDE/tool-chain/ccore-elf/mcore-elf/lib/c0_div\libcmb.a(sbrk.o)
 .debug_info    0x0002cfd8       0x91 D:\software_xqy\CCore_IDE/tool-chain/ccore-elf/mcore-elf/lib/c0_div\libcmb.a(write.o)
 .debug_info    0x0002d069       0x53 D:\software_xqy\CCore_IDE/tool-chain/ccore-elf/mcore-elf/lib/c0_div\libcmb.a(cmb-exit.o)
 .debug_info    0x0002d0bc       0x52 D:\software_xqy\CCore_IDE/tool-chain/ccore-elf/mcore-elf/lib/c0_div\libcmb.a(cmb-outbyte.o)
 .debug_info    0x0002d10e       0x44 D:\software_xqy\CCore_IDE/tool-chain/ccore-elf/mcore-elf/lib/c0_div\libcmb.a(getpid.o)
 .debug_info    0x0002d152       0x79 D:\software_xqy\CCore_IDE/tool-chain/ccore-elf/mcore-elf/lib/c0_div\libcmb.a(kill.o)
 .debug_info    0x0002d1cb      0x65a D:\work\k205_gx\K205_360S\CORE\src\drv\libEflash.a(eflash.o)
 .debug_info    0x0002d825       0x8a D:\work\k205_gx\K205_360S\CORE\src\drv\libEflash.a(cache.o)
 .debug_info    0x0002d8af      0xefd D:\work\k205_gx\K205_360S\CORE\src\drv\libAlgorithm.a(crypt.o)
 .debug_info    0x0002e7ac      0xa93 D:\work\k205_gx\K205_360S\CORE\src\drv\libAlgorithm.a(des.o)
 .debug_info    0x0002f23f     0x2d8d D:\work\k205_gx\K205_360S\CORE\src\drv\libAlgorithm.a(lib.o)
 .debug_info    0x00031fcc      0x22c D:\work\k205_gx\K205_360S\CORE\src\drv\libAlgorithm.a(sha.o)
 .debug_info    0x000321f8      0xeaf D:\work\k205_gx\K205_360S\CORE\src\drv\libAlgorithm.a(bigint.o)
 .debug_info    0x000330a7     0x1974 D:\work\k205_gx\K205_360S\CORE\src\security\algorithm\libAlg.a(algorithm.o)
 .debug_info    0x00034a1b      0xa1e D:\work\k205_gx\K205_360S\CORE\src\security\algorithm\libAlg.a(algorithm_hardware.o)
 .debug_info    0x00035439     0x1493 D:\work\k205_gx\K205_360S\CORE\src\security\hal\libcpuhal.a(cpuhal.o)
 .debug_info    0x000368cc      0x68b D:\work\k205_gx\K205_360S\CORE\src\security\hal\libcpuhal.a(pci_drv.o)
 .debug_info    0x00036f57      0x66e D:\work\k205_gx\K205_360S\CORE\src\security\sec_datastore\libsecstore.a(dev_secstore.o)
 .debug_info    0x000375c5      0x5de D:\work\k205_gx\K205_360S\CORE\src\security\sec_datastore\libsecstore.a(dev_secstore_key.o)
 .debug_info    0x00037ba3      0x829 D:\work\k205_gx\K205_360S\CORE\src\moddev\rfcard_mh1608\libnfc.a(ddi_rfcard_mh1608.o)
 .debug_info    0x000383cc     0x1874 D:\work\k205_gx\K205_360S\CORE\src\moddev\rfcard_mh1608\libnfc.a(dev_rfcard_mh1608.o)
 .debug_info    0x00039c40      0xdd3 D:\work\k205_gx\K205_360S\CORE\src\moddev\rfcard_mh1608\libnfc.a(drv_rfcard_mh1608.o)
 .debug_info    0x0003aa13      0x3f2 D:\work\k205_gx\K205_360S\CORE\src\moddev\iccard\libicc.a(ddi_iccard.o)
 .debug_info    0x0003ae05     0x166f D:\work\k205_gx\K205_360S\CORE\src\moddev\iccard\libicc.a(dev_iccard.o)
 .debug_info    0x0003c474      0xcba D:\work\k205_gx\K205_360S\CORE\src\moddev\iccard\libicc.a(drv_iccard.o)
 .debug_info    0x0003d12e      0x9b4 D:\work\k205_gx\K205_360S\CORE\src\moddev\iccard\libicc.a(icc_hardware.o)
 .debug_info    0x0003dae2      0x582 D:\work\k205_gx\K205_360S\CORE\src\moddev\bluetooth\libbt_lib.a(dev_bt_api.o)
 .debug_info    0x0003e064     0x1c58 D:\work\k205_gx\K205_360S\CORE\src\moddev\bluetooth\libbt_lib.a(yc1021.o)
 .debug_info    0x0003fcbc      0x35d D:\work\k205_gx\K205_360S\CORE\src\moddev\bluetooth\libbt_lib.a(app_fifo.o)
 .debug_info    0x00040019       0x99 D:\work\k205_gx\K205_360S\CORE\src\ccore\libReadChipSn.a(LibReadChipSN.o)

.debug_abbrev   0x00000000     0xf8b1
 .debug_abbrev  0x00000000      0x1ab ./src/sysdrv/timer/timer.o
 .debug_abbrev  0x000001ab      0x20d ./src/sysdrv/rtc/RTC.o
 .debug_abbrev  0x000003b8      0x14e ./src/sysdrv/flash/flash.o
 .debug_abbrev  0x00000506       0xf7 ./src/sysdrv/SysTick/systick.o
 .debug_abbrev  0x000005fd       0x5d ./src/sysdev/wdt/dev_wdt.o
 .debug_abbrev  0x0000065a      0x306 ./src/sysdev/usb/dev_usb.o
 .debug_abbrev  0x00000960       0xf4 ./src/sysdev/uart/dev_uart.o
 .debug_abbrev  0x00000a54      0x1ef ./src/sysdev/time/dev_time.o
 .debug_abbrev  0x00000c43       0xd0 ./src/sysdev/spi/dev_spimaster.o
 .debug_abbrev  0x00000d13      0x24d ./src/sysdev/rtc/dev_rtc.o
 .debug_abbrev  0x00000f60      0x143 ./src/sysdev/gpio/dev_gpio.o
 .debug_abbrev  0x000010a3      0x1e8 ./src/sysdev/flash/dev_flash.o
 .debug_abbrev  0x0000128b      0x13d ./src/sysdev/adc/dev_adc.o
 .debug_abbrev  0x000013c8      0x339 ./src/sysbus/usb/drv_usb.o
 .debug_abbrev  0x00001701      0x27a ./src/sysbus/uart/UART.o
 .debug_abbrev  0x0000197b      0x177 ./src/sysbus/spi/SPI_MASTER.o
 .debug_abbrev  0x00001af2      0x1fe ./src/sysbus/gpio/gpio.o
 .debug_abbrev  0x00001cf0      0x15f ./src/security/security_common/convertdata.o
 .debug_abbrev  0x00001e4f      0x100 ./src/security/security_common/security_common.o
 .debug_abbrev  0x00001f4f      0x108 ./src/security/secmgr/detect.o
 .debug_abbrev  0x00002057       0x6a ./src/security/key/key_dbg.o
 .debug_abbrev  0x000020c1      0x1fd ./src/security/app/cmd_proc.o
 .debug_abbrev  0x000022be      0x2f0 ./src/security/app/ex_func.o
 .debug_abbrev  0x000025ae      0x2c0 ./src/security/app/file_auth.o
 .debug_abbrev  0x0000286e      0x1f2 ./src/security/app/file_opt.o
 .debug_abbrev  0x00002a60      0x149 ./src/security/app/pci_func.o
 .debug_abbrev  0x00002ba9      0x22c ./src/security/app/protocol.o
 .debug_abbrev  0x00002dd5      0x289 ./src/security/app/rootkey.o
 .debug_abbrev  0x0000305e      0x2e4 ./src/security/app/sd_tamper.o
 .debug_abbrev  0x00003342      0x1a6 ./src/security/api/alg_api.o
 .debug_abbrev  0x000034e8       0xd3 ./src/security/api/mem_api.o
 .debug_abbrev  0x000035bb      0x1de ./src/moddrv/power/drv_power.o
 .debug_abbrev  0x00003799      0x16b ./src/moddrv/magcard/drv_magcard.o
 .debug_abbrev  0x00003904      0x184 ./src/moddrv/magcard/mcc_adc.o
 .debug_abbrev  0x00003a88      0x180 ./src/moddrv/lcd/drv_lcd.o
 .debug_abbrev  0x00003c08      0x16a ./src/moddrv/lcd/drv_lcd_font_data.o
 .debug_abbrev  0x00003d72      0x1b9 ./src/moddrv/keyboard/drv_key.o
 .debug_abbrev  0x00003f2b      0x1c9 ./src/moddrv/beep/drv_beep.o
 .debug_abbrev  0x000040f4      0x324 ./src/moddev/power/dev_power.o
 .debug_abbrev  0x00004418      0x113 ./src/moddev/magcard/ddi_magcard.o
 .debug_abbrev  0x0000452b       0xf7 ./src/moddev/magcard/dev_magcard.o
 .debug_abbrev  0x00004622       0xdc ./src/moddev/led/ddi_led.o
 .debug_abbrev  0x000046fe      0x3cc ./src/moddev/lcd/dev_lcd.o
 .debug_abbrev  0x00004aca      0x2cf ./src/moddev/keyboard/dev_key.o
 .debug_abbrev  0x00004d99      0x337 ./src/moddev/bt_update/bt_update.o
 .debug_abbrev  0x000050d0       0x9e ./src/moddev/bt_update/crc16.o
 .debug_abbrev  0x0000516e      0x2d9 ./src/moddev/bt_update/mpos_protocol.o
 .debug_abbrev  0x00005447      0x123 ./src/moddev/beep/dev_beep.o
 .debug_abbrev  0x0000556a      0x18d ./src/main/main.o
 .debug_abbrev  0x000056f7      0x35e ./src/main/test.o
 .debug_abbrev  0x00005a55      0x235 ./src/fun/dev_maths.o
 .debug_abbrev  0x00005c8a      0x2f3 ./src/fs/fs_vs.o
 .debug_abbrev  0x00005f7d      0x17a ./src/drv/adc_dma.o
 .debug_abbrev  0x000060f7      0x203 ./src/drv/adc_drv.o
 .debug_abbrev  0x000062fa      0x36a ./src/drv/alg_drv.o
 .debug_abbrev  0x00006664       0xb7 ./src/drv/cache_drv.o
 .debug_abbrev  0x0000671b      0x10b ./src/drv/ccm_drv.o
 .debug_abbrev  0x00006826      0x214 ./src/drv/cpm_drv.o
 .debug_abbrev  0x00006a3a      0x179 ./src/drv/dmac_drv.o
 .debug_abbrev  0x00006bb3      0x16b ./src/drv/edma_drv.o
 .debug_abbrev  0x00006d1e       0x41 ./src/drv/eflash_drv.o
 .debug_abbrev  0x00006d5f      0x1b3 ./src/drv/eport_drv.o
 .debug_abbrev  0x00006f12      0x2cb ./src/drv/i2c_drv.o
 .debug_abbrev  0x000071dd      0x108 ./src/drv/pit32_drv.o
 .debug_abbrev  0x000072e5      0x119 ./src/drv/pit_drv.o
 .debug_abbrev  0x000073fe      0x1fd ./src/drv/pwm_drv.o
 .debug_abbrev  0x000075fb       0x88 ./src/drv/reset_drv.o
 .debug_abbrev  0x00007683      0x155 ./src/drv/rtc_drv.o
 .debug_abbrev  0x000077d8      0x1e5 ./src/drv/spi_drv.o
 .debug_abbrev  0x000079bd       0xe3 ./src/drv/tc_drv.o
 .debug_abbrev  0x00007aa0      0x135 ./src/drv/uart_drv.o
 .debug_abbrev  0x00007bd5      0x1fb ./src/drv/usi_drv.o
 .debug_abbrev  0x00007dd0       0x97 ./src/drv/wdt_drv.o
 .debug_abbrev  0x00007e67      0x28e ./src/common/alloc.o
 .debug_abbrev  0x000080f5      0x3ef ./src/common/debug.o
 .debug_abbrev  0x000084e4       0xcb ./src/common/delay.o
 .debug_abbrev  0x000085af      0x32b ./src/common/download.o
 .debug_abbrev  0x000088da      0x2b0 ./src/common/misc.o
 .debug_abbrev  0x00008b8a      0x2bb ./src/common/syscfg.o
 .debug_abbrev  0x00008e45      0x276 ./src/common/update.o
 .debug_abbrev  0x000090bb       0x9e ./src/ccore/AsmToC.o
 .debug_abbrev  0x00009159       0xac ./src/ccore/Memory_API.o
 .debug_abbrev  0x00009205       0xe6 ./src/ccore/interrupt.o
 .debug_abbrev  0x000092eb       0xc2 ./src/ccore/vector_rce.o
 .debug_abbrev  0x000093ad       0x50 ./src/ccore/vector_table.o
 .debug_abbrev  0x000093fd      0x1a6 ./src/api/dev_api.o
 .debug_abbrev  0x000095a3      0x183 D:\software_xqy\CCore_IDE/tool-chain/ccore-elf/lib/gcc/mcore-elf/4.6.0/c0_div\libgcc.a(_addsub_df.o)
 .debug_abbrev  0x00009726      0x1a6 D:\software_xqy\CCore_IDE/tool-chain/ccore-elf/lib/gcc/mcore-elf/4.6.0/c0_div\libgcc.a(_mul_df.o)
 .debug_abbrev  0x000098cc      0x19a D:\software_xqy\CCore_IDE/tool-chain/ccore-elf/lib/gcc/mcore-elf/4.6.0/c0_div\libgcc.a(_div_df.o)
 .debug_abbrev  0x00009a66      0x127 D:\software_xqy\CCore_IDE/tool-chain/ccore-elf/lib/gcc/mcore-elf/4.6.0/c0_div\libgcc.a(_eq_df.o)
 .debug_abbrev  0x00009b8d      0x127 D:\software_xqy\CCore_IDE/tool-chain/ccore-elf/lib/gcc/mcore-elf/4.6.0/c0_div\libgcc.a(_ne_df.o)
 .debug_abbrev  0x00009cb4      0x127 D:\software_xqy\CCore_IDE/tool-chain/ccore-elf/lib/gcc/mcore-elf/4.6.0/c0_div\libgcc.a(_gt_df.o)
 .debug_abbrev  0x00009ddb      0x127 D:\software_xqy\CCore_IDE/tool-chain/ccore-elf/lib/gcc/mcore-elf/4.6.0/c0_div\libgcc.a(_lt_df.o)
 .debug_abbrev  0x00009f02      0x164 D:\software_xqy\CCore_IDE/tool-chain/ccore-elf/lib/gcc/mcore-elf/4.6.0/c0_div\libgcc.a(_si_to_df.o)
 .debug_abbrev  0x0000a066      0x136 D:\software_xqy\CCore_IDE/tool-chain/ccore-elf/lib/gcc/mcore-elf/4.6.0/c0_div\libgcc.a(_df_to_si.o)
 .debug_abbrev  0x0000a19c       0xcb D:\software_xqy\CCore_IDE/tool-chain/ccore-elf/lib/gcc/mcore-elf/4.6.0/c0_div\libgcc.a(_thenan_df.o)
 .debug_abbrev  0x0000a267       0xff D:\software_xqy\CCore_IDE/tool-chain/ccore-elf/lib/gcc/mcore-elf/4.6.0/c0_div\libgcc.a(_muldi3.o)
 .debug_abbrev  0x0000a366       0xcc D:\software_xqy\CCore_IDE/tool-chain/ccore-elf/lib/gcc/mcore-elf/4.6.0/c0_div\libgcc.a(_clzsi2.o)
 .debug_abbrev  0x0000a432      0x160 D:\software_xqy\CCore_IDE/tool-chain/ccore-elf/lib/gcc/mcore-elf/4.6.0/c0_div\libgcc.a(_pack_df.o)
 .debug_abbrev  0x0000a592      0x130 D:\software_xqy\CCore_IDE/tool-chain/ccore-elf/lib/gcc/mcore-elf/4.6.0/c0_div\libgcc.a(_unpack_df.o)
 .debug_abbrev  0x0000a6c2      0x11a D:\software_xqy\CCore_IDE/tool-chain/ccore-elf/lib/gcc/mcore-elf/4.6.0/c0_div\libgcc.a(_fpcmp_parts_df.o)
 .debug_abbrev  0x0000a7dc       0xff D:\software_xqy\CCore_IDE/tool-chain/ccore-elf/lib/gcc/mcore-elf/4.6.0/c0_div\libgcc.a(_lshrdi3.o)
 .debug_abbrev  0x0000a8db       0xff D:\software_xqy\CCore_IDE/tool-chain/ccore-elf/lib/gcc/mcore-elf/4.6.0/c0_div\libgcc.a(_ashldi3.o)
 .debug_abbrev  0x0000a9da       0x61 D:\software_xqy\CCore_IDE/tool-chain/ccore-elf/lib/gcc/mcore-elf/4.6.0/c0_div\libgcc.a(_clz.o)
 .debug_abbrev  0x0000aa3b       0x3f D:\software_xqy\CCore_IDE/tool-chain/ccore-elf/mcore-elf/lib/c0_div\libc.a(lib_a-abort.o)
 .debug_abbrev  0x0000aa7a       0x7c D:\software_xqy\CCore_IDE/tool-chain/ccore-elf/mcore-elf/lib/c0_div\libc.a(lib_a-memcmp.o)
 .debug_abbrev  0x0000aaf6       0x9c D:\software_xqy\CCore_IDE/tool-chain/ccore-elf/mcore-elf/lib/c0_div\libc.a(lib_a-memset.o)
 .debug_abbrev  0x0000ab92      0x111 D:\software_xqy\CCore_IDE/tool-chain/ccore-elf/mcore-elf/lib/c0_div\libc.a(lib_a-s_modf.o)
 .debug_abbrev  0x0000aca3      0x221 D:\software_xqy\CCore_IDE/tool-chain/ccore-elf/mcore-elf/lib/c0_div\libc.a(lib_a-signal.o)
 .debug_abbrev  0x0000aec4      0x1a4 D:\software_xqy\CCore_IDE/tool-chain/ccore-elf/mcore-elf/lib/c0_div\libc.a(lib_a-signalr.o)
 .debug_abbrev  0x0000b068       0x87 D:\software_xqy\CCore_IDE/tool-chain/ccore-elf/mcore-elf/lib/c0_div\libc.a(lib_a-strcat.o)
 .debug_abbrev  0x0000b0ef       0x71 D:\software_xqy\CCore_IDE/tool-chain/ccore-elf/mcore-elf/lib/c0_div\libc.a(lib_a-strcmp.o)
 .debug_abbrev  0x0000b160       0x80 D:\software_xqy\CCore_IDE/tool-chain/ccore-elf/mcore-elf/lib/c0_div\libc.a(lib_a-strcpy.o)
 .debug_abbrev  0x0000b1e0       0x7e D:\software_xqy\CCore_IDE/tool-chain/ccore-elf/mcore-elf/lib/c0_div\libc.a(lib_a-strlen.o)
 .debug_abbrev  0x0000b25e      0x166 D:\software_xqy\CCore_IDE/tool-chain/ccore-elf/mcore-elf/lib/c0_div\libc.a(lib_a-impure.o)
 .debug_abbrev  0x0000b3c4      0x233 D:\software_xqy\CCore_IDE/tool-chain/ccore-elf/mcore-elf/lib/c0_div\libc.a(lib_a-mallocr.o)
 .debug_abbrev  0x0000b5f7      0x179 D:\software_xqy\CCore_IDE/tool-chain/ccore-elf/mcore-elf/lib/c0_div\libc.a(lib_a-mlock.o)
 .debug_abbrev  0x0000b770      0x1e6 D:\software_xqy\CCore_IDE/tool-chain/ccore-elf/mcore-elf/lib/c0_div\libc.a(lib_a-reent.o)
 .debug_abbrev  0x0000b956      0x1b0 D:\software_xqy\CCore_IDE/tool-chain/ccore-elf/mcore-elf/lib/c0_div\libc.a(lib_a-sbrkr.o)
 .debug_abbrev  0x0000bb06      0x1ea D:\software_xqy\CCore_IDE/tool-chain/ccore-elf/mcore-elf/lib/c0_div\libc.a(lib_a-freer.o)
 .debug_abbrev  0x0000bcf0       0xed D:\software_xqy\CCore_IDE/tool-chain/ccore-elf/mcore-elf/lib/c0_div\libcmb.a(sbrk.o)
 .debug_abbrev  0x0000bddd       0x79 D:\software_xqy\CCore_IDE/tool-chain/ccore-elf/mcore-elf/lib/c0_div\libcmb.a(write.o)
 .debug_abbrev  0x0000be56       0x45 D:\software_xqy\CCore_IDE/tool-chain/ccore-elf/mcore-elf/lib/c0_div\libcmb.a(cmb-exit.o)
 .debug_abbrev  0x0000be9b       0x45 D:\software_xqy\CCore_IDE/tool-chain/ccore-elf/mcore-elf/lib/c0_div\libcmb.a(cmb-outbyte.o)
 .debug_abbrev  0x0000bee0       0x34 D:\software_xqy\CCore_IDE/tool-chain/ccore-elf/mcore-elf/lib/c0_div\libcmb.a(getpid.o)
 .debug_abbrev  0x0000bf14       0x5f D:\software_xqy\CCore_IDE/tool-chain/ccore-elf/mcore-elf/lib/c0_div\libcmb.a(kill.o)
 .debug_abbrev  0x0000bf73      0x17a D:\work\k205_gx\K205_360S\CORE\src\drv\libEflash.a(eflash.o)
 .debug_abbrev  0x0000c0ed       0x69 D:\work\k205_gx\K205_360S\CORE\src\drv\libEflash.a(cache.o)
 .debug_abbrev  0x0000c156      0x3b3 D:\work\k205_gx\K205_360S\CORE\src\drv\libAlgorithm.a(crypt.o)
 .debug_abbrev  0x0000c509      0x293 D:\work\k205_gx\K205_360S\CORE\src\drv\libAlgorithm.a(des.o)
 .debug_abbrev  0x0000c79c      0x41b D:\work\k205_gx\K205_360S\CORE\src\drv\libAlgorithm.a(lib.o)
 .debug_abbrev  0x0000cbb7       0xdc D:\work\k205_gx\K205_360S\CORE\src\drv\libAlgorithm.a(sha.o)
 .debug_abbrev  0x0000cc93      0x35c D:\work\k205_gx\K205_360S\CORE\src\drv\libAlgorithm.a(bigint.o)
 .debug_abbrev  0x0000cfef      0x328 D:\work\k205_gx\K205_360S\CORE\src\security\algorithm\libAlg.a(algorithm.o)
 .debug_abbrev  0x0000d317      0x10e D:\work\k205_gx\K205_360S\CORE\src\security\algorithm\libAlg.a(algorithm_hardware.o)
 .debug_abbrev  0x0000d425      0x25b D:\work\k205_gx\K205_360S\CORE\src\security\hal\libcpuhal.a(cpuhal.o)
 .debug_abbrev  0x0000d680      0x2b7 D:\work\k205_gx\K205_360S\CORE\src\security\hal\libcpuhal.a(pci_drv.o)
 .debug_abbrev  0x0000d937      0x18a D:\work\k205_gx\K205_360S\CORE\src\security\sec_datastore\libsecstore.a(dev_secstore.o)
 .debug_abbrev  0x0000dac1      0x19f D:\work\k205_gx\K205_360S\CORE\src\security\sec_datastore\libsecstore.a(dev_secstore_key.o)
 .debug_abbrev  0x0000dc60      0x1dd D:\work\k205_gx\K205_360S\CORE\src\moddev\rfcard_mh1608\libnfc.a(ddi_rfcard_mh1608.o)
 .debug_abbrev  0x0000de3d      0x42e D:\work\k205_gx\K205_360S\CORE\src\moddev\rfcard_mh1608\libnfc.a(dev_rfcard_mh1608.o)
 .debug_abbrev  0x0000e26b      0x34d D:\work\k205_gx\K205_360S\CORE\src\moddev\rfcard_mh1608\libnfc.a(drv_rfcard_mh1608.o)
 .debug_abbrev  0x0000e5b8      0x147 D:\work\k205_gx\K205_360S\CORE\src\moddev\iccard\libicc.a(ddi_iccard.o)
 .debug_abbrev  0x0000e6ff      0x470 D:\work\k205_gx\K205_360S\CORE\src\moddev\iccard\libicc.a(dev_iccard.o)
 .debug_abbrev  0x0000eb6f      0x314 D:\work\k205_gx\K205_360S\CORE\src\moddev\iccard\libicc.a(drv_iccard.o)
 .debug_abbrev  0x0000ee83      0x2cf D:\work\k205_gx\K205_360S\CORE\src\moddev\iccard\libicc.a(icc_hardware.o)
 .debug_abbrev  0x0000f152      0x1fb D:\work\k205_gx\K205_360S\CORE\src\moddev\bluetooth\libbt_lib.a(dev_bt_api.o)
 .debug_abbrev  0x0000f34d      0x3fe D:\work\k205_gx\K205_360S\CORE\src\moddev\bluetooth\libbt_lib.a(yc1021.o)
 .debug_abbrev  0x0000f74b       0xef D:\work\k205_gx\K205_360S\CORE\src\moddev\bluetooth\libbt_lib.a(app_fifo.o)
 .debug_abbrev  0x0000f83a       0x77 D:\work\k205_gx\K205_360S\CORE\src\ccore\libReadChipSn.a(LibReadChipSN.o)

.debug_loc      0x00000000    0x37ec4
 .debug_loc     0x00000000      0x154 ./src/sysdrv/timer/timer.o
 .debug_loc     0x00000154      0x529 ./src/sysdrv/rtc/RTC.o
 .debug_loc     0x0000067d      0x26e ./src/sysdrv/flash/flash.o
 .debug_loc     0x000008eb       0x2c ./src/sysdrv/SysTick/systick.o
 .debug_loc     0x00000917       0x84 ./src/sysdev/wdt/dev_wdt.o
 .debug_loc     0x0000099b      0x491 ./src/sysdev/usb/dev_usb.o
 .debug_loc     0x00000e2c      0x329 ./src/sysdev/uart/dev_uart.o
 .debug_loc     0x00001155      0x33f ./src/sysdev/time/dev_time.o
 .debug_loc     0x00001494      0x25f ./src/sysdev/spi/dev_spimaster.o
 .debug_loc     0x000016f3      0x466 ./src/sysdev/rtc/dev_rtc.o
 .debug_loc     0x00001b59      0x1ce ./src/sysdev/gpio/dev_gpio.o
 .debug_loc     0x00001d27      0x580 ./src/sysdev/flash/dev_flash.o
 .debug_loc     0x000022a7      0x1ac ./src/sysdev/adc/dev_adc.o
 .debug_loc     0x00002453      0xa5a ./src/sysbus/usb/drv_usb.o
 .debug_loc     0x00002ead      0x452 ./src/sysbus/uart/UART.o
 .debug_loc     0x000032ff      0x360 ./src/sysbus/spi/SPI_MASTER.o
 .debug_loc     0x0000365f      0x37d ./src/sysbus/gpio/gpio.o
 .debug_loc     0x000039dc      0x71d ./src/security/security_common/convertdata.o
 .debug_loc     0x000040f9      0x119 ./src/security/security_common/security_common.o
 .debug_loc     0x00004212      0x337 ./src/security/secmgr/detect.o
 .debug_loc     0x00004549      0x504 ./src/security/app/cmd_proc.o
 .debug_loc     0x00004a4d      0x63c ./src/security/app/ex_func.o
 .debug_loc     0x00005089     0x10e8 ./src/security/app/file_auth.o
 .debug_loc     0x00006171      0x7ca ./src/security/app/file_opt.o
 .debug_loc     0x0000693b      0x23d ./src/security/app/pci_func.o
 .debug_loc     0x00006b78      0x578 ./src/security/app/protocol.o
 .debug_loc     0x000070f0      0x843 ./src/security/app/rootkey.o
 .debug_loc     0x00007933      0x5a8 ./src/security/app/sd_tamper.o
 .debug_loc     0x00007edb     0x1357 ./src/security/api/alg_api.o
 .debug_loc     0x00009232       0xfa ./src/security/api/mem_api.o
 .debug_loc     0x0000932c      0x217 ./src/moddrv/power/drv_power.o
 .debug_loc     0x00009543      0x3b6 ./src/moddrv/magcard/drv_magcard.o
 .debug_loc     0x000098f9      0x114 ./src/moddrv/magcard/mcc_adc.o
 .debug_loc     0x00009a0d      0x461 ./src/moddrv/lcd/drv_lcd.o
 .debug_loc     0x00009e6e      0x2b6 ./src/moddrv/lcd/drv_lcd_font_data.o
 .debug_loc     0x0000a124      0x29e ./src/moddrv/keyboard/drv_key.o
 .debug_loc     0x0000a3c2      0x1f2 ./src/moddrv/beep/drv_beep.o
 .debug_loc     0x0000a5b4      0x51e ./src/moddev/power/dev_power.o
 .debug_loc     0x0000aad2      0x663 ./src/moddev/magcard/ddi_magcard.o
 .debug_loc     0x0000b135      0x1da ./src/moddev/magcard/dev_magcard.o
 .debug_loc     0x0000b30f       0x91 ./src/moddev/led/ddi_led.o
 .debug_loc     0x0000b3a0     0x2257 ./src/moddev/lcd/dev_lcd.o
 .debug_loc     0x0000d5f7      0x499 ./src/moddev/keyboard/dev_key.o
 .debug_loc     0x0000da90      0xebd ./src/moddev/bt_update/bt_update.o
 .debug_loc     0x0000e94d       0x5b ./src/moddev/bt_update/crc16.o
 .debug_loc     0x0000e9a8      0x721 ./src/moddev/bt_update/mpos_protocol.o
 .debug_loc     0x0000f0c9      0x18e ./src/moddev/beep/dev_beep.o
 .debug_loc     0x0000f257      0x130 ./src/main/main.o
 .debug_loc     0x0000f387     0x1b74 ./src/main/test.o
 .debug_loc     0x00010efb     0x11d3 ./src/fun/dev_maths.o
 .debug_loc     0x000120ce      0xfbf ./src/fs/fs_vs.o
 .debug_loc     0x0001308d      0x121 ./src/drv/adc_dma.o
 .debug_loc     0x000131ae      0x2bf ./src/drv/adc_drv.o
 .debug_loc     0x0001346d     0x1837 ./src/drv/alg_drv.o
 .debug_loc     0x00014ca4       0x5b ./src/drv/ccm_drv.o
 .debug_loc     0x00014cff      0x2c3 ./src/drv/cpm_drv.o
 .debug_loc     0x00014fc2      0x214 ./src/drv/dmac_drv.o
 .debug_loc     0x000151d6      0x342 ./src/drv/edma_drv.o
 .debug_loc     0x00015518       0x58 ./src/drv/eflash_drv.o
 .debug_loc     0x00015570      0x41e ./src/drv/eport_drv.o
 .debug_loc     0x0001598e      0x543 ./src/drv/i2c_drv.o
 .debug_loc     0x00015ed1      0x11e ./src/drv/pit32_drv.o
 .debug_loc     0x00015fef      0x13e ./src/drv/pit_drv.o
 .debug_loc     0x0001612d      0x3d0 ./src/drv/pwm_drv.o
 .debug_loc     0x000164fd      0x371 ./src/drv/rtc_drv.o
 .debug_loc     0x0001686e      0x6e8 ./src/drv/spi_drv.o
 .debug_loc     0x00016f56       0xec ./src/drv/tc_drv.o
 .debug_loc     0x00017042       0x4d ./src/drv/uart_drv.o
 .debug_loc     0x0001708f      0x41c ./src/drv/usi_drv.o
 .debug_loc     0x000174ab      0x4c2 ./src/common/alloc.o
 .debug_loc     0x0001796d     0x1a50 ./src/common/debug.o
 .debug_loc     0x000193bd       0x9c ./src/common/delay.o
 .debug_loc     0x00019459      0xc24 ./src/common/download.o
 .debug_loc     0x0001a07d      0x557 ./src/common/misc.o
 .debug_loc     0x0001a5d4     0x12ef ./src/common/syscfg.o
 .debug_loc     0x0001b8c3      0x5c2 ./src/common/update.o
 .debug_loc     0x0001be85       0x31 ./src/ccore/Memory_API.o
 .debug_loc     0x0001beb6      0x17c ./src/ccore/interrupt.o
 .debug_loc     0x0001c032      0x108 ./src/ccore/vector_rce.o
 .debug_loc     0x0001c13a      0x10f ./src/api/dev_api.o
 .debug_loc     0x0001c249      0x4a1 D:\software_xqy\CCore_IDE/tool-chain/ccore-elf/lib/gcc/mcore-elf/4.6.0/c0_div\libgcc.a(_addsub_df.o)
 .debug_loc     0x0001c6ea      0x4a7 D:\software_xqy\CCore_IDE/tool-chain/ccore-elf/lib/gcc/mcore-elf/4.6.0/c0_div\libgcc.a(_mul_df.o)
 .debug_loc     0x0001cb91      0x1f0 D:\software_xqy\CCore_IDE/tool-chain/ccore-elf/lib/gcc/mcore-elf/4.6.0/c0_div\libgcc.a(_div_df.o)
 .debug_loc     0x0001cd81       0x80 D:\software_xqy\CCore_IDE/tool-chain/ccore-elf/lib/gcc/mcore-elf/4.6.0/c0_div\libgcc.a(_eq_df.o)
 .debug_loc     0x0001ce01       0x80 D:\software_xqy\CCore_IDE/tool-chain/ccore-elf/lib/gcc/mcore-elf/4.6.0/c0_div\libgcc.a(_ne_df.o)
 .debug_loc     0x0001ce81       0x80 D:\software_xqy\CCore_IDE/tool-chain/ccore-elf/lib/gcc/mcore-elf/4.6.0/c0_div\libgcc.a(_gt_df.o)
 .debug_loc     0x0001cf01       0x80 D:\software_xqy\CCore_IDE/tool-chain/ccore-elf/lib/gcc/mcore-elf/4.6.0/c0_div\libgcc.a(_lt_df.o)
 .debug_loc     0x0001cf81       0xde D:\software_xqy\CCore_IDE/tool-chain/ccore-elf/lib/gcc/mcore-elf/4.6.0/c0_div\libgcc.a(_si_to_df.o)
 .debug_loc     0x0001d05f       0x9f D:\software_xqy\CCore_IDE/tool-chain/ccore-elf/lib/gcc/mcore-elf/4.6.0/c0_div\libgcc.a(_df_to_si.o)
 .debug_loc     0x0001d0fe       0xe6 D:\software_xqy\CCore_IDE/tool-chain/ccore-elf/lib/gcc/mcore-elf/4.6.0/c0_div\libgcc.a(_muldi3.o)
 .debug_loc     0x0001d1e4       0x73 D:\software_xqy\CCore_IDE/tool-chain/ccore-elf/lib/gcc/mcore-elf/4.6.0/c0_div\libgcc.a(_clzsi2.o)
 .debug_loc     0x0001d257      0x1f2 D:\software_xqy\CCore_IDE/tool-chain/ccore-elf/lib/gcc/mcore-elf/4.6.0/c0_div\libgcc.a(_pack_df.o)
 .debug_loc     0x0001d449      0x141 D:\software_xqy\CCore_IDE/tool-chain/ccore-elf/lib/gcc/mcore-elf/4.6.0/c0_div\libgcc.a(_unpack_df.o)
 .debug_loc     0x0001d58a       0x4a D:\software_xqy\CCore_IDE/tool-chain/ccore-elf/lib/gcc/mcore-elf/4.6.0/c0_div\libgcc.a(_fpcmp_parts_df.o)
 .debug_loc     0x0001d5d4       0xaf D:\software_xqy\CCore_IDE/tool-chain/ccore-elf/lib/gcc/mcore-elf/4.6.0/c0_div\libgcc.a(_lshrdi3.o)
 .debug_loc     0x0001d683       0xaf D:\software_xqy\CCore_IDE/tool-chain/ccore-elf/lib/gcc/mcore-elf/4.6.0/c0_div\libgcc.a(_ashldi3.o)
 .debug_loc     0x0001d732       0x20 D:\software_xqy\CCore_IDE/tool-chain/ccore-elf/mcore-elf/lib/c0_div\libc.a(lib_a-abort.o)
 .debug_loc     0x0001d752       0xb3 D:\software_xqy\CCore_IDE/tool-chain/ccore-elf/mcore-elf/lib/c0_div\libc.a(lib_a-memcmp.o)
 .debug_loc     0x0001d805      0x209 D:\software_xqy\CCore_IDE/tool-chain/ccore-elf/mcore-elf/lib/c0_div\libc.a(lib_a-memset.o)
 .debug_loc     0x0001da0e      0x248 D:\software_xqy\CCore_IDE/tool-chain/ccore-elf/mcore-elf/lib/c0_div\libc.a(lib_a-s_modf.o)
 .debug_loc     0x0001dc56      0x416 D:\software_xqy\CCore_IDE/tool-chain/ccore-elf/mcore-elf/lib/c0_div\libc.a(lib_a-signal.o)
 .debug_loc     0x0001e06c       0xdd D:\software_xqy\CCore_IDE/tool-chain/ccore-elf/mcore-elf/lib/c0_div\libc.a(lib_a-signalr.o)
 .debug_loc     0x0001e149       0xba D:\software_xqy\CCore_IDE/tool-chain/ccore-elf/mcore-elf/lib/c0_div\libc.a(lib_a-strcat.o)
 .debug_loc     0x0001e203       0xc0 D:\software_xqy\CCore_IDE/tool-chain/ccore-elf/mcore-elf/lib/c0_div\libc.a(lib_a-strcmp.o)
 .debug_loc     0x0001e2c3      0x126 D:\software_xqy\CCore_IDE/tool-chain/ccore-elf/mcore-elf/lib/c0_div\libc.a(lib_a-strcpy.o)
 .debug_loc     0x0001e3e9       0xb2 D:\software_xqy\CCore_IDE/tool-chain/ccore-elf/mcore-elf/lib/c0_div\libc.a(lib_a-strlen.o)
 .debug_loc     0x0001e49b      0xadc D:\software_xqy\CCore_IDE/tool-chain/ccore-elf/mcore-elf/lib/c0_div\libc.a(lib_a-mallocr.o)
 .debug_loc     0x0001ef77      0x224 D:\software_xqy\CCore_IDE/tool-chain/ccore-elf/mcore-elf/lib/c0_div\libc.a(lib_a-reent.o)
 .debug_loc     0x0001f19b       0x80 D:\software_xqy\CCore_IDE/tool-chain/ccore-elf/mcore-elf/lib/c0_div\libc.a(lib_a-sbrkr.o)
 .debug_loc     0x0001f21b      0x44e D:\software_xqy\CCore_IDE/tool-chain/ccore-elf/mcore-elf/lib/c0_div\libc.a(lib_a-freer.o)
 .debug_loc     0x0001f669       0x74 D:\software_xqy\CCore_IDE/tool-chain/ccore-elf/mcore-elf/lib/c0_div\libcmb.a(sbrk.o)
 .debug_loc     0x0001f6dd       0xa5 D:\software_xqy\CCore_IDE/tool-chain/ccore-elf/mcore-elf/lib/c0_div\libcmb.a(write.o)
 .debug_loc     0x0001f782       0x69 D:\software_xqy\CCore_IDE/tool-chain/ccore-elf/mcore-elf/lib/c0_div\libcmb.a(kill.o)
 .debug_loc     0x0001f7eb      0x660 D:\work\k205_gx\K205_360S\CORE\src\drv\libEflash.a(eflash.o)
 .debug_loc     0x0001fe4b       0x88 D:\work\k205_gx\K205_360S\CORE\src\drv\libEflash.a(cache.o)
 .debug_loc     0x0001fed3     0x17f0 D:\work\k205_gx\K205_360S\CORE\src\drv\libAlgorithm.a(crypt.o)
 .debug_loc     0x000216c3     0x16cb D:\work\k205_gx\K205_360S\CORE\src\drv\libAlgorithm.a(des.o)
 .debug_loc     0x00022d8e     0x5650 D:\work\k205_gx\K205_360S\CORE\src\drv\libAlgorithm.a(lib.o)
 .debug_loc     0x000283de      0x208 D:\work\k205_gx\K205_360S\CORE\src\drv\libAlgorithm.a(sha.o)
 .debug_loc     0x000285e6     0x1bfd D:\work\k205_gx\K205_360S\CORE\src\drv\libAlgorithm.a(bigint.o)
 .debug_loc     0x0002a1e3     0x2c24 D:\work\k205_gx\K205_360S\CORE\src\security\algorithm\libAlg.a(algorithm.o)
 .debug_loc     0x0002ce07      0xa0c D:\work\k205_gx\K205_360S\CORE\src\security\algorithm\libAlg.a(algorithm_hardware.o)
 .debug_loc     0x0002d813     0x1dea D:\work\k205_gx\K205_360S\CORE\src\security\hal\libcpuhal.a(cpuhal.o)
 .debug_loc     0x0002f5fd      0x3f7 D:\work\k205_gx\K205_360S\CORE\src\security\hal\libcpuhal.a(pci_drv.o)
 .debug_loc     0x0002f9f4      0x8b7 D:\work\k205_gx\K205_360S\CORE\src\security\sec_datastore\libsecstore.a(dev_secstore.o)
 .debug_loc     0x000302ab      0x538 D:\work\k205_gx\K205_360S\CORE\src\security\sec_datastore\libsecstore.a(dev_secstore_key.o)
 .debug_loc     0x000307e3      0x446 D:\work\k205_gx\K205_360S\CORE\src\moddev\rfcard_mh1608\libnfc.a(ddi_rfcard_mh1608.o)
 .debug_loc     0x00030c29     0x1de9 D:\work\k205_gx\K205_360S\CORE\src\moddev\rfcard_mh1608\libnfc.a(dev_rfcard_mh1608.o)
 .debug_loc     0x00032a12      0xd95 D:\work\k205_gx\K205_360S\CORE\src\moddev\rfcard_mh1608\libnfc.a(drv_rfcard_mh1608.o)
 .debug_loc     0x000337a7      0x464 D:\work\k205_gx\K205_360S\CORE\src\moddev\iccard\libicc.a(ddi_iccard.o)
 .debug_loc     0x00033c0b     0x139b D:\work\k205_gx\K205_360S\CORE\src\moddev\iccard\libicc.a(dev_iccard.o)
 .debug_loc     0x00034fa6      0x4c1 D:\work\k205_gx\K205_360S\CORE\src\moddev\iccard\libicc.a(drv_iccard.o)
 .debug_loc     0x00035467      0x513 D:\work\k205_gx\K205_360S\CORE\src\moddev\iccard\libicc.a(icc_hardware.o)
 .debug_loc     0x0003597a      0x52a D:\work\k205_gx\K205_360S\CORE\src\moddev\bluetooth\libbt_lib.a(dev_bt_api.o)
 .debug_loc     0x00035ea4     0x1d6b D:\work\k205_gx\K205_360S\CORE\src\moddev\bluetooth\libbt_lib.a(yc1021.o)
 .debug_loc     0x00037c0f      0x28e D:\work\k205_gx\K205_360S\CORE\src\moddev\bluetooth\libbt_lib.a(app_fifo.o)
 .debug_loc     0x00037e9d       0x27 D:\work\k205_gx\K205_360S\CORE\src\ccore\libReadChipSn.a(LibReadChipSN.o)

.debug_aranges  0x00000000     0x3868
 .debug_aranges
                0x00000000       0x40 ./src/sysdrv/timer/timer.o
 .debug_aranges
                0x00000040       0x50 ./src/sysdrv/rtc/RTC.o
 .debug_aranges
                0x00000090       0x60 ./src/sysdrv/flash/flash.o
 .debug_aranges
                0x000000f0       0x48 ./src/sysdrv/SysTick/systick.o
 .debug_aranges
                0x00000138       0x30 ./src/sysdev/wdt/dev_wdt.o
 .debug_aranges
                0x00000168       0x80 ./src/sysdev/usb/dev_usb.o
 .debug_aranges
                0x000001e8       0x68 ./src/sysdev/uart/dev_uart.o
 .debug_aranges
                0x00000250       0x70 ./src/sysdev/time/dev_time.o
 .debug_aranges
                0x000002c0       0x40 ./src/sysdev/spi/dev_spimaster.o
 .debug_aranges
                0x00000300       0x68 ./src/sysdev/rtc/dev_rtc.o
 .debug_aranges
                0x00000368       0x40 ./src/sysdev/gpio/dev_gpio.o
 .debug_aranges
                0x000003a8       0x50 ./src/sysdev/flash/dev_flash.o
 .debug_aranges
                0x000003f8       0x48 ./src/sysdev/adc/dev_adc.o
 .debug_aranges
                0x00000440      0x148 ./src/sysbus/usb/drv_usb.o
 .debug_aranges
                0x00000588       0x68 ./src/sysbus/uart/UART.o
 .debug_aranges
                0x000005f0       0x50 ./src/sysbus/spi/SPI_MASTER.o
 .debug_aranges
                0x00000640       0xa0 ./src/sysbus/gpio/gpio.o
 .debug_aranges
                0x000006e0       0x60 ./src/security/security_common/convertdata.o
 .debug_aranges
                0x00000740       0x40 ./src/security/security_common/security_common.o
 .debug_aranges
                0x00000780       0x78 ./src/security/secmgr/detect.o
 .debug_aranges
                0x000007f8       0x40 ./src/security/app/cmd_proc.o
 .debug_aranges
                0x00000838       0x90 ./src/security/app/ex_func.o
 .debug_aranges
                0x000008c8       0x68 ./src/security/app/file_auth.o
 .debug_aranges
                0x00000930       0x78 ./src/security/app/file_opt.o
 .debug_aranges
                0x000009a8       0x48 ./src/security/app/pci_func.o
 .debug_aranges
                0x000009f0       0x70 ./src/security/app/protocol.o
 .debug_aranges
                0x00000a60       0x90 ./src/security/app/rootkey.o
 .debug_aranges
                0x00000af0       0x98 ./src/security/app/sd_tamper.o
 .debug_aranges
                0x00000b88       0xf8 ./src/security/api/alg_api.o
 .debug_aranges
                0x00000c80       0x30 ./src/security/api/mem_api.o
 .debug_aranges
                0x00000cb0       0x68 ./src/moddrv/power/drv_power.o
 .debug_aranges
                0x00000d18       0x38 ./src/moddrv/magcard/drv_magcard.o
 .debug_aranges
                0x00000d50       0x30 ./src/moddrv/magcard/mcc_adc.o
 .debug_aranges
                0x00000d80       0x88 ./src/moddrv/lcd/drv_lcd.o
 .debug_aranges
                0x00000e08       0x30 ./src/moddrv/lcd/drv_lcd_font_data.o
 .debug_aranges
                0x00000e38       0x58 ./src/moddrv/keyboard/drv_key.o
 .debug_aranges
                0x00000e90       0x70 ./src/moddrv/beep/drv_beep.o
 .debug_aranges
                0x00000f00       0x90 ./src/moddev/power/dev_power.o
 .debug_aranges
                0x00000f90       0x40 ./src/moddev/magcard/ddi_magcard.o
 .debug_aranges
                0x00000fd0       0x50 ./src/moddev/magcard/dev_magcard.o
 .debug_aranges
                0x00001020       0x38 ./src/moddev/led/ddi_led.o
 .debug_aranges
                0x00001058      0x160 ./src/moddev/lcd/dev_lcd.o
 .debug_aranges
                0x000011b8       0x90 ./src/moddev/keyboard/dev_key.o
 .debug_aranges
                0x00001248       0x60 ./src/moddev/bt_update/bt_update.o
 .debug_aranges
                0x000012a8       0x20 ./src/moddev/bt_update/crc16.o
 .debug_aranges
                0x000012c8       0x68 ./src/moddev/bt_update/mpos_protocol.o
 .debug_aranges
                0x00001330       0x68 ./src/moddev/beep/dev_beep.o
 .debug_aranges
                0x00001398       0x38 ./src/main/main.o
 .debug_aranges
                0x000013d0      0x128 ./src/main/test.o
 .debug_aranges
                0x000014f8      0x168 ./src/fun/dev_maths.o
 .debug_aranges
                0x00001660      0x100 ./src/fs/fs_vs.o
 .debug_aranges
                0x00001760       0x50 ./src/drv/adc_dma.o
 .debug_aranges
                0x000017b0       0x50 ./src/drv/adc_drv.o
 .debug_aranges
                0x00001800       0xe8 ./src/drv/alg_drv.o
 .debug_aranges
                0x000018e8       0x20 ./src/drv/cache_drv.o
 .debug_aranges
                0x00001908       0x48 ./src/drv/ccm_drv.o
 .debug_aranges
                0x00001950       0x98 ./src/drv/cpm_drv.o
 .debug_aranges
                0x000019e8       0x38 ./src/drv/dmac_drv.o
 .debug_aranges
                0x00001a20       0x70 ./src/drv/edma_drv.o
 .debug_aranges
                0x00001a90       0x28 ./src/drv/eflash_drv.o
 .debug_aranges
                0x00001ab8       0xa8 ./src/drv/eport_drv.o
 .debug_aranges
                0x00001b60       0x80 ./src/drv/i2c_drv.o
 .debug_aranges
                0x00001be0       0x40 ./src/drv/pit32_drv.o
 .debug_aranges
                0x00001c20       0x40 ./src/drv/pit_drv.o
 .debug_aranges
                0x00001c60       0x60 ./src/drv/pwm_drv.o
 .debug_aranges
                0x00001cc0       0x28 ./src/drv/reset_drv.o
 .debug_aranges
                0x00001ce8       0x40 ./src/drv/rtc_drv.o
 .debug_aranges
                0x00001d28       0x78 ./src/drv/spi_drv.o
 .debug_aranges
                0x00001da0       0x40 ./src/drv/tc_drv.o
 .debug_aranges
                0x00001de0       0x30 ./src/drv/uart_drv.o
 .debug_aranges
                0x00001e10       0x98 ./src/drv/usi_drv.o
 .debug_aranges
                0x00001ea8       0x38 ./src/drv/wdt_drv.o
 .debug_aranges
                0x00001ee0       0x60 ./src/common/alloc.o
 .debug_aranges
                0x00001f40       0x98 ./src/common/debug.o
 .debug_aranges
                0x00001fd8       0x30 ./src/common/delay.o
 .debug_aranges
                0x00002008       0x50 ./src/common/download.o
 .debug_aranges
                0x00002058       0x50 ./src/common/misc.o
 .debug_aranges
                0x000020a8       0xa8 ./src/common/syscfg.o
 .debug_aranges
                0x00002150       0x70 ./src/common/update.o
 .debug_aranges
                0x000021c0       0x48 ./src/ccore/AsmToC.o
 .debug_aranges
                0x00002208       0x38 ./src/ccore/Memory_API.o
 .debug_aranges
                0x00002240       0x28 ./src/ccore/interrupt.o
 .debug_aranges
                0x00002268       0x50 ./src/ccore/vector_rce.o
 .debug_aranges
                0x000022b8       0x38 ./src/api/dev_api.o
 .debug_aranges
                0x000022f0       0x20 D:\software_xqy\CCore_IDE/tool-chain/ccore-elf/lib/gcc/mcore-elf/4.6.0/c0_div\libgcc.a(_addsub_df.o)
 .debug_aranges
                0x00002310       0x20 D:\software_xqy\CCore_IDE/tool-chain/ccore-elf/lib/gcc/mcore-elf/4.6.0/c0_div\libgcc.a(_mul_df.o)
 .debug_aranges
                0x00002330       0x20 D:\software_xqy\CCore_IDE/tool-chain/ccore-elf/lib/gcc/mcore-elf/4.6.0/c0_div\libgcc.a(_div_df.o)
 .debug_aranges
                0x00002350       0x20 D:\software_xqy\CCore_IDE/tool-chain/ccore-elf/lib/gcc/mcore-elf/4.6.0/c0_div\libgcc.a(_eq_df.o)
 .debug_aranges
                0x00002370       0x20 D:\software_xqy\CCore_IDE/tool-chain/ccore-elf/lib/gcc/mcore-elf/4.6.0/c0_div\libgcc.a(_ne_df.o)
 .debug_aranges
                0x00002390       0x20 D:\software_xqy\CCore_IDE/tool-chain/ccore-elf/lib/gcc/mcore-elf/4.6.0/c0_div\libgcc.a(_gt_df.o)
 .debug_aranges
                0x000023b0       0x20 D:\software_xqy\CCore_IDE/tool-chain/ccore-elf/lib/gcc/mcore-elf/4.6.0/c0_div\libgcc.a(_lt_df.o)
 .debug_aranges
                0x000023d0       0x20 D:\software_xqy\CCore_IDE/tool-chain/ccore-elf/lib/gcc/mcore-elf/4.6.0/c0_div\libgcc.a(_si_to_df.o)
 .debug_aranges
                0x000023f0       0x20 D:\software_xqy\CCore_IDE/tool-chain/ccore-elf/lib/gcc/mcore-elf/4.6.0/c0_div\libgcc.a(_df_to_si.o)
 .debug_aranges
                0x00002410       0x20 D:\software_xqy\CCore_IDE/tool-chain/ccore-elf/lib/gcc/mcore-elf/4.6.0/c0_div\libgcc.a(_muldi3.o)
 .debug_aranges
                0x00002430       0x20 D:\software_xqy\CCore_IDE/tool-chain/ccore-elf/lib/gcc/mcore-elf/4.6.0/c0_div\libgcc.a(_clzsi2.o)
 .debug_aranges
                0x00002450       0x20 D:\software_xqy\CCore_IDE/tool-chain/ccore-elf/lib/gcc/mcore-elf/4.6.0/c0_div\libgcc.a(_pack_df.o)
 .debug_aranges
                0x00002470       0x20 D:\software_xqy\CCore_IDE/tool-chain/ccore-elf/lib/gcc/mcore-elf/4.6.0/c0_div\libgcc.a(_unpack_df.o)
 .debug_aranges
                0x00002490       0x20 D:\software_xqy\CCore_IDE/tool-chain/ccore-elf/lib/gcc/mcore-elf/4.6.0/c0_div\libgcc.a(_fpcmp_parts_df.o)
 .debug_aranges
                0x000024b0       0x20 D:\software_xqy\CCore_IDE/tool-chain/ccore-elf/lib/gcc/mcore-elf/4.6.0/c0_div\libgcc.a(_lshrdi3.o)
 .debug_aranges
                0x000024d0       0x20 D:\software_xqy\CCore_IDE/tool-chain/ccore-elf/lib/gcc/mcore-elf/4.6.0/c0_div\libgcc.a(_ashldi3.o)
 .debug_aranges
                0x000024f0       0x20 D:\software_xqy\CCore_IDE/tool-chain/ccore-elf/mcore-elf/lib/c0_div\libc.a(lib_a-abort.o)
 .debug_aranges
                0x00002510       0x20 D:\software_xqy\CCore_IDE/tool-chain/ccore-elf/mcore-elf/lib/c0_div\libc.a(lib_a-memcmp.o)
 .debug_aranges
                0x00002530       0x20 D:\software_xqy\CCore_IDE/tool-chain/ccore-elf/mcore-elf/lib/c0_div\libc.a(lib_a-memset.o)
 .debug_aranges
                0x00002550       0x20 D:\software_xqy\CCore_IDE/tool-chain/ccore-elf/mcore-elf/lib/c0_div\libc.a(lib_a-s_modf.o)
 .debug_aranges
                0x00002570       0x20 D:\software_xqy\CCore_IDE/tool-chain/ccore-elf/mcore-elf/lib/c0_div\libc.a(lib_a-signal.o)
 .debug_aranges
                0x00002590       0x20 D:\software_xqy\CCore_IDE/tool-chain/ccore-elf/mcore-elf/lib/c0_div\libc.a(lib_a-signalr.o)
 .debug_aranges
                0x000025b0       0x20 D:\software_xqy\CCore_IDE/tool-chain/ccore-elf/mcore-elf/lib/c0_div\libc.a(lib_a-strcat.o)
 .debug_aranges
                0x000025d0       0x20 D:\software_xqy\CCore_IDE/tool-chain/ccore-elf/mcore-elf/lib/c0_div\libc.a(lib_a-strcmp.o)
 .debug_aranges
                0x000025f0       0x20 D:\software_xqy\CCore_IDE/tool-chain/ccore-elf/mcore-elf/lib/c0_div\libc.a(lib_a-strcpy.o)
 .debug_aranges
                0x00002610       0x20 D:\software_xqy\CCore_IDE/tool-chain/ccore-elf/mcore-elf/lib/c0_div\libc.a(lib_a-strlen.o)
 .debug_aranges
                0x00002630       0x20 D:\software_xqy\CCore_IDE/tool-chain/ccore-elf/mcore-elf/lib/c0_div\libc.a(lib_a-mallocr.o)
 .debug_aranges
                0x00002650       0x20 D:\software_xqy\CCore_IDE/tool-chain/ccore-elf/mcore-elf/lib/c0_div\libc.a(lib_a-mlock.o)
 .debug_aranges
                0x00002670       0x20 D:\software_xqy\CCore_IDE/tool-chain/ccore-elf/mcore-elf/lib/c0_div\libc.a(lib_a-reent.o)
 .debug_aranges
                0x00002690       0x20 D:\software_xqy\CCore_IDE/tool-chain/ccore-elf/mcore-elf/lib/c0_div\libc.a(lib_a-sbrkr.o)
 .debug_aranges
                0x000026b0       0x20 D:\software_xqy\CCore_IDE/tool-chain/ccore-elf/mcore-elf/lib/c0_div\libc.a(lib_a-freer.o)
 .debug_aranges
                0x000026d0       0x20 D:\software_xqy\CCore_IDE/tool-chain/ccore-elf/mcore-elf/lib/c0_div\libcmb.a(sbrk.o)
 .debug_aranges
                0x000026f0       0x20 D:\software_xqy\CCore_IDE/tool-chain/ccore-elf/mcore-elf/lib/c0_div\libcmb.a(write.o)
 .debug_aranges
                0x00002710       0x20 D:\software_xqy\CCore_IDE/tool-chain/ccore-elf/mcore-elf/lib/c0_div\libcmb.a(cmb-exit.o)
 .debug_aranges
                0x00002730       0x20 D:\software_xqy\CCore_IDE/tool-chain/ccore-elf/mcore-elf/lib/c0_div\libcmb.a(cmb-outbyte.o)
 .debug_aranges
                0x00002750       0x20 D:\software_xqy\CCore_IDE/tool-chain/ccore-elf/mcore-elf/lib/c0_div\libcmb.a(getpid.o)
 .debug_aranges
                0x00002770       0x20 D:\software_xqy\CCore_IDE/tool-chain/ccore-elf/mcore-elf/lib/c0_div\libcmb.a(kill.o)
 .debug_aranges
                0x00002790       0xd8 D:\work\k205_gx\K205_360S\CORE\src\drv\libEflash.a(eflash.o)
 .debug_aranges
                0x00002868       0x28 D:\work\k205_gx\K205_360S\CORE\src\drv\libEflash.a(cache.o)
 .debug_aranges
                0x00002890       0x88 D:\work\k205_gx\K205_360S\CORE\src\drv\libAlgorithm.a(crypt.o)
 .debug_aranges
                0x00002918       0x68 D:\work\k205_gx\K205_360S\CORE\src\drv\libAlgorithm.a(des.o)
 .debug_aranges
                0x00002980      0x1a0 D:\work\k205_gx\K205_360S\CORE\src\drv\libAlgorithm.a(lib.o)
 .debug_aranges
                0x00002b20       0x30 D:\work\k205_gx\K205_360S\CORE\src\drv\libAlgorithm.a(sha.o)
 .debug_aranges
                0x00002b50       0xb8 D:\work\k205_gx\K205_360S\CORE\src\drv\libAlgorithm.a(bigint.o)
 .debug_aranges
                0x00002c08      0x110 D:\work\k205_gx\K205_360S\CORE\src\security\algorithm\libAlg.a(algorithm.o)
 .debug_aranges
                0x00002d18       0xa0 D:\work\k205_gx\K205_360S\CORE\src\security\algorithm\libAlg.a(algorithm_hardware.o)
 .debug_aranges
                0x00002db8       0xf8 D:\work\k205_gx\K205_360S\CORE\src\security\hal\libcpuhal.a(cpuhal.o)
 .debug_aranges
                0x00002eb0       0xb0 D:\work\k205_gx\K205_360S\CORE\src\security\hal\libcpuhal.a(pci_drv.o)
 .debug_aranges
                0x00002f60       0x50 D:\work\k205_gx\K205_360S\CORE\src\security\sec_datastore\libsecstore.a(dev_secstore.o)
 .debug_aranges
                0x00002fb0       0x48 D:\work\k205_gx\K205_360S\CORE\src\security\sec_datastore\libsecstore.a(dev_secstore_key.o)
 .debug_aranges
                0x00002ff8       0x60 D:\work\k205_gx\K205_360S\CORE\src\moddev\rfcard_mh1608\libnfc.a(ddi_rfcard_mh1608.o)
 .debug_aranges
                0x00003058      0x168 D:\work\k205_gx\K205_360S\CORE\src\moddev\rfcard_mh1608\libnfc.a(dev_rfcard_mh1608.o)
 .debug_aranges
                0x000031c0      0x110 D:\work\k205_gx\K205_360S\CORE\src\moddev\rfcard_mh1608\libnfc.a(drv_rfcard_mh1608.o)
 .debug_aranges
                0x000032d0       0x58 D:\work\k205_gx\K205_360S\CORE\src\moddev\iccard\libicc.a(ddi_iccard.o)
 .debug_aranges
                0x00003328       0xd8 D:\work\k205_gx\K205_360S\CORE\src\moddev\iccard\libicc.a(dev_iccard.o)
 .debug_aranges
                0x00003400       0xf0 D:\work\k205_gx\K205_360S\CORE\src\moddev\iccard\libicc.a(drv_iccard.o)
 .debug_aranges
                0x000034f0       0xa0 D:\work\k205_gx\K205_360S\CORE\src\moddev\iccard\libicc.a(icc_hardware.o)
 .debug_aranges
                0x00003590       0x60 D:\work\k205_gx\K205_360S\CORE\src\moddev\bluetooth\libbt_lib.a(dev_bt_api.o)
 .debug_aranges
                0x000035f0      0x200 D:\work\k205_gx\K205_360S\CORE\src\moddev\bluetooth\libbt_lib.a(yc1021.o)
 .debug_aranges
                0x000037f0       0x58 D:\work\k205_gx\K205_360S\CORE\src\moddev\bluetooth\libbt_lib.a(app_fifo.o)
 .debug_aranges
                0x00003848       0x20 D:\work\k205_gx\K205_360S\CORE\src\ccore\libReadChipSn.a(LibReadChipSN.o)

.debug_ranges   0x00000000     0x3f78
 .debug_ranges  0x00000000       0x60 ./src/sysdrv/timer/timer.o
 .debug_ranges  0x00000060       0x70 ./src/sysdrv/rtc/RTC.o
 .debug_ranges  0x000000d0       0x50 ./src/sysdrv/flash/flash.o
 .debug_ranges  0x00000120       0x38 ./src/sysdrv/SysTick/systick.o
 .debug_ranges  0x00000158       0x20 ./src/sysdev/wdt/dev_wdt.o
 .debug_ranges  0x00000178       0x70 ./src/sysdev/usb/dev_usb.o
 .debug_ranges  0x000001e8       0x58 ./src/sysdev/uart/dev_uart.o
 .debug_ranges  0x00000240       0x60 ./src/sysdev/time/dev_time.o
 .debug_ranges  0x000002a0       0x30 ./src/sysdev/spi/dev_spimaster.o
 .debug_ranges  0x000002d0       0x58 ./src/sysdev/rtc/dev_rtc.o
 .debug_ranges  0x00000328       0x30 ./src/sysdev/gpio/dev_gpio.o
 .debug_ranges  0x00000358       0x40 ./src/sysdev/flash/dev_flash.o
 .debug_ranges  0x00000398       0x50 ./src/sysdev/adc/dev_adc.o
 .debug_ranges  0x000003e8      0x150 ./src/sysbus/usb/drv_usb.o
 .debug_ranges  0x00000538       0x58 ./src/sysbus/uart/UART.o
 .debug_ranges  0x00000590       0x40 ./src/sysbus/spi/SPI_MASTER.o
 .debug_ranges  0x000005d0       0x90 ./src/sysbus/gpio/gpio.o
 .debug_ranges  0x00000660       0x50 ./src/security/security_common/convertdata.o
 .debug_ranges  0x000006b0       0x30 ./src/security/security_common/security_common.o
 .debug_ranges  0x000006e0       0x68 ./src/security/secmgr/detect.o
 .debug_ranges  0x00000748       0x30 ./src/security/app/cmd_proc.o
 .debug_ranges  0x00000778       0x80 ./src/security/app/ex_func.o
 .debug_ranges  0x000007f8       0x58 ./src/security/app/file_auth.o
 .debug_ranges  0x00000850       0x68 ./src/security/app/file_opt.o
 .debug_ranges  0x000008b8       0x38 ./src/security/app/pci_func.o
 .debug_ranges  0x000008f0       0x80 ./src/security/app/protocol.o
 .debug_ranges  0x00000970       0x80 ./src/security/app/rootkey.o
 .debug_ranges  0x000009f0       0x88 ./src/security/app/sd_tamper.o
 .debug_ranges  0x00000a78       0xe8 ./src/security/api/alg_api.o
 .debug_ranges  0x00000b60       0x20 ./src/security/api/mem_api.o
 .debug_ranges  0x00000b80       0x58 ./src/moddrv/power/drv_power.o
 .debug_ranges  0x00000bd8       0x28 ./src/moddrv/magcard/drv_magcard.o
 .debug_ranges  0x00000c00       0x20 ./src/moddrv/magcard/mcc_adc.o
 .debug_ranges  0x00000c20       0x78 ./src/moddrv/lcd/drv_lcd.o
 .debug_ranges  0x00000c98       0x20 ./src/moddrv/lcd/drv_lcd_font_data.o
 .debug_ranges  0x00000cb8       0x48 ./src/moddrv/keyboard/drv_key.o
 .debug_ranges  0x00000d00       0x60 ./src/moddrv/beep/drv_beep.o
 .debug_ranges  0x00000d60       0x80 ./src/moddev/power/dev_power.o
 .debug_ranges  0x00000de0       0x30 ./src/moddev/magcard/ddi_magcard.o
 .debug_ranges  0x00000e10       0x40 ./src/moddev/magcard/dev_magcard.o
 .debug_ranges  0x00000e50       0x28 ./src/moddev/led/ddi_led.o
 .debug_ranges  0x00000e78      0x1c0 ./src/moddev/lcd/dev_lcd.o
 .debug_ranges  0x00001038       0x80 ./src/moddev/keyboard/dev_key.o
 .debug_ranges  0x000010b8       0xc8 ./src/moddev/bt_update/bt_update.o
 .debug_ranges  0x00001180       0x10 ./src/moddev/bt_update/crc16.o
 .debug_ranges  0x00001190       0x58 ./src/moddev/bt_update/mpos_protocol.o
 .debug_ranges  0x000011e8       0x58 ./src/moddev/beep/dev_beep.o
 .debug_ranges  0x00001240       0x28 ./src/main/main.o
 .debug_ranges  0x00001268      0x1c8 ./src/main/test.o
 .debug_ranges  0x00001430      0x158 ./src/fun/dev_maths.o
 .debug_ranges  0x00001588      0x120 ./src/fs/fs_vs.o
 .debug_ranges  0x000016a8       0x40 ./src/drv/adc_dma.o
 .debug_ranges  0x000016e8       0x40 ./src/drv/adc_drv.o
 .debug_ranges  0x00001728      0x138 ./src/drv/alg_drv.o
 .debug_ranges  0x00001860       0x10 ./src/drv/cache_drv.o
 .debug_ranges  0x00001870       0x38 ./src/drv/ccm_drv.o
 .debug_ranges  0x000018a8       0x88 ./src/drv/cpm_drv.o
 .debug_ranges  0x00001930       0x28 ./src/drv/dmac_drv.o
 .debug_ranges  0x00001958       0x60 ./src/drv/edma_drv.o
 .debug_ranges  0x000019b8       0x18 ./src/drv/eflash_drv.o
 .debug_ranges  0x000019d0       0x98 ./src/drv/eport_drv.o
 .debug_ranges  0x00001a68       0xa0 ./src/drv/i2c_drv.o
 .debug_ranges  0x00001b08       0x30 ./src/drv/pit32_drv.o
 .debug_ranges  0x00001b38       0x30 ./src/drv/pit_drv.o
 .debug_ranges  0x00001b68       0x50 ./src/drv/pwm_drv.o
 .debug_ranges  0x00001bb8       0x18 ./src/drv/reset_drv.o
 .debug_ranges  0x00001bd0       0x30 ./src/drv/rtc_drv.o
 .debug_ranges  0x00001c00       0x68 ./src/drv/spi_drv.o
 .debug_ranges  0x00001c68       0x30 ./src/drv/tc_drv.o
 .debug_ranges  0x00001c98       0x20 ./src/drv/uart_drv.o
 .debug_ranges  0x00001cb8       0x88 ./src/drv/usi_drv.o
 .debug_ranges  0x00001d40       0x28 ./src/drv/wdt_drv.o
 .debug_ranges  0x00001d68       0x50 ./src/common/alloc.o
 .debug_ranges  0x00001db8      0x160 ./src/common/debug.o
 .debug_ranges  0x00001f18       0x38 ./src/common/delay.o
 .debug_ranges  0x00001f50      0x138 ./src/common/download.o
 .debug_ranges  0x00002088       0x70 ./src/common/misc.o
 .debug_ranges  0x000020f8       0xb0 ./src/common/syscfg.o
 .debug_ranges  0x000021a8       0x78 ./src/common/update.o
 .debug_ranges  0x00002220       0x38 ./src/ccore/AsmToC.o
 .debug_ranges  0x00002258       0x28 ./src/ccore/Memory_API.o
 .debug_ranges  0x00002280       0x18 ./src/ccore/interrupt.o
 .debug_ranges  0x00002298       0x40 ./src/ccore/vector_rce.o
 .debug_ranges  0x000022d8       0x28 ./src/api/dev_api.o
 .debug_ranges  0x00002300       0x30 D:\software_xqy\CCore_IDE/tool-chain/ccore-elf/lib/gcc/mcore-elf/4.6.0/c0_div\libgcc.a(_addsub_df.o)
 .debug_ranges  0x00002330       0x78 D:\software_xqy\CCore_IDE/tool-chain/ccore-elf/lib/gcc/mcore-elf/4.6.0/c0_div\libgcc.a(_mul_df.o)
 .debug_ranges  0x000023a8       0x58 D:\software_xqy\CCore_IDE/tool-chain/ccore-elf/lib/gcc/mcore-elf/4.6.0/c0_div\libgcc.a(_div_df.o)
 .debug_ranges  0x00002400       0x20 D:\software_xqy\CCore_IDE/tool-chain/ccore-elf/lib/gcc/mcore-elf/4.6.0/c0_div\libgcc.a(_clzsi2.o)
 .debug_ranges  0x00002420       0x18 D:\software_xqy\CCore_IDE/tool-chain/ccore-elf/lib/gcc/mcore-elf/4.6.0/c0_div\libgcc.a(_pack_df.o)
 .debug_ranges  0x00002438       0x20 D:\software_xqy\CCore_IDE/tool-chain/ccore-elf/mcore-elf/lib/c0_div\libc.a(lib_a-strcat.o)
 .debug_ranges  0x00002458       0x70 D:\software_xqy\CCore_IDE/tool-chain/ccore-elf/mcore-elf/lib/c0_div\libc.a(lib_a-mallocr.o)
 .debug_ranges  0x000024c8       0xc8 D:\work\k205_gx\K205_360S\CORE\src\drv\libEflash.a(eflash.o)
 .debug_ranges  0x00002590       0x18 D:\work\k205_gx\K205_360S\CORE\src\drv\libEflash.a(cache.o)
 .debug_ranges  0x000025a8      0x248 D:\work\k205_gx\K205_360S\CORE\src\drv\libAlgorithm.a(crypt.o)
 .debug_ranges  0x000027f0      0x100 D:\work\k205_gx\K205_360S\CORE\src\drv\libAlgorithm.a(des.o)
 .debug_ranges  0x000028f0      0x690 D:\work\k205_gx\K205_360S\CORE\src\drv\libAlgorithm.a(lib.o)
 .debug_ranges  0x00002f80       0x20 D:\work\k205_gx\K205_360S\CORE\src\drv\libAlgorithm.a(sha.o)
 .debug_ranges  0x00002fa0      0x150 D:\work\k205_gx\K205_360S\CORE\src\drv\libAlgorithm.a(bigint.o)
 .debug_ranges  0x000030f0      0x100 D:\work\k205_gx\K205_360S\CORE\src\security\algorithm\libAlg.a(algorithm.o)
 .debug_ranges  0x000031f0       0x90 D:\work\k205_gx\K205_360S\CORE\src\security\algorithm\libAlg.a(algorithm_hardware.o)
 .debug_ranges  0x00003280       0xe8 D:\work\k205_gx\K205_360S\CORE\src\security\hal\libcpuhal.a(cpuhal.o)
 .debug_ranges  0x00003368       0xa0 D:\work\k205_gx\K205_360S\CORE\src\security\hal\libcpuhal.a(pci_drv.o)
 .debug_ranges  0x00003408       0x40 D:\work\k205_gx\K205_360S\CORE\src\security\sec_datastore\libsecstore.a(dev_secstore.o)
 .debug_ranges  0x00003448       0x38 D:\work\k205_gx\K205_360S\CORE\src\security\sec_datastore\libsecstore.a(dev_secstore_key.o)
 .debug_ranges  0x00003480       0x50 D:\work\k205_gx\K205_360S\CORE\src\moddev\rfcard_mh1608\libnfc.a(ddi_rfcard_mh1608.o)
 .debug_ranges  0x000034d0      0x188 D:\work\k205_gx\K205_360S\CORE\src\moddev\rfcard_mh1608\libnfc.a(dev_rfcard_mh1608.o)
 .debug_ranges  0x00003658      0x100 D:\work\k205_gx\K205_360S\CORE\src\moddev\rfcard_mh1608\libnfc.a(drv_rfcard_mh1608.o)
 .debug_ranges  0x00003758       0x60 D:\work\k205_gx\K205_360S\CORE\src\moddev\iccard\libicc.a(ddi_iccard.o)
 .debug_ranges  0x000037b8      0x198 D:\work\k205_gx\K205_360S\CORE\src\moddev\iccard\libicc.a(dev_iccard.o)
 .debug_ranges  0x00003950      0x1d0 D:\work\k205_gx\K205_360S\CORE\src\moddev\iccard\libicc.a(drv_iccard.o)
 .debug_ranges  0x00003b20       0xc0 D:\work\k205_gx\K205_360S\CORE\src\moddev\iccard\libicc.a(icc_hardware.o)
 .debug_ranges  0x00003be0       0x80 D:\work\k205_gx\K205_360S\CORE\src\moddev\bluetooth\libbt_lib.a(dev_bt_api.o)
 .debug_ranges  0x00003c60      0x2c0 D:\work\k205_gx\K205_360S\CORE\src\moddev\bluetooth\libbt_lib.a(yc1021.o)
 .debug_ranges  0x00003f20       0x48 D:\work\k205_gx\K205_360S\CORE\src\moddev\bluetooth\libbt_lib.a(app_fifo.o)
 .debug_ranges  0x00003f68       0x10 D:\work\k205_gx\K205_360S\CORE\src\ccore\libReadChipSn.a(LibReadChipSN.o)

.debug_line     0x00000000    0x34867
 .debug_line    0x00000000      0x245 ./src/sysdrv/timer/timer.o
 .debug_line    0x00000245      0x4cf ./src/sysdrv/rtc/RTC.o
 .debug_line    0x00000714      0x226 ./src/sysdrv/flash/flash.o
 .debug_line    0x0000093a      0x1c4 ./src/sysdrv/SysTick/systick.o
 .debug_line    0x00000afe      0x10a ./src/sysdev/wdt/dev_wdt.o
 .debug_line    0x00000c08      0x529 ./src/sysdev/usb/dev_usb.o
 .debug_line    0x00001131      0x290 ./src/sysdev/uart/dev_uart.o
 .debug_line    0x000013c1      0x304 ./src/sysdev/time/dev_time.o
 .debug_line    0x000016c5      0x27c ./src/sysdev/spi/dev_spimaster.o
 .debug_line    0x00001941      0x688 ./src/sysdev/rtc/dev_rtc.o
 .debug_line    0x00001fc9      0x239 ./src/sysdev/gpio/dev_gpio.o
 .debug_line    0x00002202      0x2d2 ./src/sysdev/flash/dev_flash.o
 .debug_line    0x000024d4      0x1ee ./src/sysdev/adc/dev_adc.o
 .debug_line    0x000026c2      0xd61 ./src/sysbus/usb/drv_usb.o
 .debug_line    0x00003423      0x538 ./src/sysbus/uart/UART.o
 .debug_line    0x0000395b      0x38c ./src/sysbus/spi/SPI_MASTER.o
 .debug_line    0x00003ce7      0x6da ./src/sysbus/gpio/gpio.o
 .debug_line    0x000043c1      0x50c ./src/security/security_common/convertdata.o
 .debug_line    0x000048cd      0x1d4 ./src/security/security_common/security_common.o
 .debug_line    0x00004aa1      0x248 ./src/security/secmgr/detect.o
 .debug_line    0x00004ce9       0x76 ./src/security/key/key_dbg.o
 .debug_line    0x00004d5f      0x644 ./src/security/app/cmd_proc.o
 .debug_line    0x000053a3      0x527 ./src/security/app/ex_func.o
 .debug_line    0x000058ca      0xa6d ./src/security/app/file_auth.o
 .debug_line    0x00006337      0x534 ./src/security/app/file_opt.o
 .debug_line    0x0000686b      0x240 ./src/security/app/pci_func.o
 .debug_line    0x00006aab      0x886 ./src/security/app/protocol.o
 .debug_line    0x00007331      0x814 ./src/security/app/rootkey.o
 .debug_line    0x00007b45      0x7d4 ./src/security/app/sd_tamper.o
 .debug_line    0x00008319      0x696 ./src/security/api/alg_api.o
 .debug_line    0x000089af      0x134 ./src/security/api/mem_api.o
 .debug_line    0x00008ae3      0x6d8 ./src/moddrv/power/drv_power.o
 .debug_line    0x000091bb      0x3b3 ./src/moddrv/magcard/drv_magcard.o
 .debug_line    0x0000956e      0x184 ./src/moddrv/magcard/mcc_adc.o
 .debug_line    0x000096f2      0x643 ./src/moddrv/lcd/drv_lcd.o
 .debug_line    0x00009d35      0x22e ./src/moddrv/lcd/drv_lcd_font_data.o
 .debug_line    0x00009f63      0x3bc ./src/moddrv/keyboard/drv_key.o
 .debug_line    0x0000a31f      0x4e4 ./src/moddrv/beep/drv_beep.o
 .debug_line    0x0000a803      0x92b ./src/moddev/power/dev_power.o
 .debug_line    0x0000b12e      0x36f ./src/moddev/magcard/ddi_magcard.o
 .debug_line    0x0000b49d      0x1f4 ./src/moddev/magcard/dev_magcard.o
 .debug_line    0x0000b691      0x104 ./src/moddev/led/ddi_led.o
 .debug_line    0x0000b795     0x19ca ./src/moddev/lcd/dev_lcd.o
 .debug_line    0x0000d15f      0x652 ./src/moddev/keyboard/dev_key.o
 .debug_line    0x0000d7b1      0xcfe ./src/moddev/bt_update/bt_update.o
 .debug_line    0x0000e4af       0xda ./src/moddev/bt_update/crc16.o
 .debug_line    0x0000e589      0x702 ./src/moddev/bt_update/mpos_protocol.o
 .debug_line    0x0000ec8b      0x204 ./src/moddev/beep/dev_beep.o
 .debug_line    0x0000ee8f      0x48a ./src/main/main.o
 .debug_line    0x0000f319     0x2211 ./src/main/test.o
 .debug_line    0x0001152a     0x101e ./src/fun/dev_maths.o
 .debug_line    0x00012548      0xd40 ./src/fs/fs_vs.o
 .debug_line    0x00013288      0x36f ./src/drv/adc_dma.o
 .debug_line    0x000135f7      0x412 ./src/drv/adc_drv.o
 .debug_line    0x00013a09     0x1351 ./src/drv/alg_drv.o
 .debug_line    0x00014d5a      0x1a3 ./src/drv/cache_drv.o
 .debug_line    0x00014efd      0x2bf ./src/drv/ccm_drv.o
 .debug_line    0x000151bc      0x5a0 ./src/drv/cpm_drv.o
 .debug_line    0x0001575c      0x320 ./src/drv/dmac_drv.o
 .debug_line    0x00015a7c      0x513 ./src/drv/edma_drv.o
 .debug_line    0x00015f8f       0x83 ./src/drv/eflash_drv.o
 .debug_line    0x00016012      0x894 ./src/drv/eport_drv.o
 .debug_line    0x000168a6      0x70b ./src/drv/i2c_drv.o
 .debug_line    0x00016fb1      0x1d8 ./src/drv/pit32_drv.o
 .debug_line    0x00017189      0x217 ./src/drv/pit_drv.o
 .debug_line    0x000173a0      0x72f ./src/drv/pwm_drv.o
 .debug_line    0x00017acf       0xff ./src/drv/reset_drv.o
 .debug_line    0x00017bce      0x3a1 ./src/drv/rtc_drv.o
 .debug_line    0x00017f6f      0x7d0 ./src/drv/spi_drv.o
 .debug_line    0x0001873f      0x1ea ./src/drv/tc_drv.o
 .debug_line    0x00018929      0x18d ./src/drv/uart_drv.o
 .debug_line    0x00018ab6      0x544 ./src/drv/usi_drv.o
 .debug_line    0x00018ffa      0x157 ./src/drv/wdt_drv.o
 .debug_line    0x00019151      0x4a0 ./src/common/alloc.o
 .debug_line    0x000195f1     0x1237 ./src/common/debug.o
 .debug_line    0x0001a828      0x104 ./src/common/delay.o
 .debug_line    0x0001a92c      0xf45 ./src/common/download.o
 .debug_line    0x0001b871      0x5aa ./src/common/misc.o
 .debug_line    0x0001be1b      0xd2c ./src/common/syscfg.o
 .debug_line    0x0001cb47      0x4c9 ./src/common/update.o
 .debug_line    0x0001d010      0x10a ./src/ccore/AsmToC.o
 .debug_line    0x0001d11a      0x105 ./src/ccore/Memory_API.o
 .debug_line    0x0001d21f      0x163 ./src/ccore/interrupt.o
 .debug_line    0x0001d382      0x147 ./src/ccore/vector_rce.o
 .debug_line    0x0001d4c9       0x43 ./src/ccore/vector_table.o
 .debug_line    0x0001d50c      0x355 ./src/api/dev_api.o
 .debug_line    0x0001d861      0x31c D:\software_xqy\CCore_IDE/tool-chain/ccore-elf/lib/gcc/mcore-elf/4.6.0/c0_div\libgcc.a(_addsub_df.o)
 .debug_line    0x0001db7d      0x2ed D:\software_xqy\CCore_IDE/tool-chain/ccore-elf/lib/gcc/mcore-elf/4.6.0/c0_div\libgcc.a(_mul_df.o)
 .debug_line    0x0001de6a      0x21f D:\software_xqy\CCore_IDE/tool-chain/ccore-elf/lib/gcc/mcore-elf/4.6.0/c0_div\libgcc.a(_div_df.o)
 .debug_line    0x0001e089       0xc7 D:\software_xqy\CCore_IDE/tool-chain/ccore-elf/lib/gcc/mcore-elf/4.6.0/c0_div\libgcc.a(_eq_df.o)
 .debug_line    0x0001e150       0xc7 D:\software_xqy\CCore_IDE/tool-chain/ccore-elf/lib/gcc/mcore-elf/4.6.0/c0_div\libgcc.a(_ne_df.o)
 .debug_line    0x0001e217       0xd7 D:\software_xqy\CCore_IDE/tool-chain/ccore-elf/lib/gcc/mcore-elf/4.6.0/c0_div\libgcc.a(_gt_df.o)
 .debug_line    0x0001e2ee       0xc7 D:\software_xqy\CCore_IDE/tool-chain/ccore-elf/lib/gcc/mcore-elf/4.6.0/c0_div\libgcc.a(_lt_df.o)
 .debug_line    0x0001e3b5      0x12b D:\software_xqy\CCore_IDE/tool-chain/ccore-elf/lib/gcc/mcore-elf/4.6.0/c0_div\libgcc.a(_si_to_df.o)
 .debug_line    0x0001e4e0      0x117 D:\software_xqy\CCore_IDE/tool-chain/ccore-elf/lib/gcc/mcore-elf/4.6.0/c0_div\libgcc.a(_df_to_si.o)
 .debug_line    0x0001e5f7       0x7c D:\software_xqy\CCore_IDE/tool-chain/ccore-elf/lib/gcc/mcore-elf/4.6.0/c0_div\libgcc.a(_thenan_df.o)
 .debug_line    0x0001e673       0xb3 D:\software_xqy\CCore_IDE/tool-chain/ccore-elf/lib/gcc/mcore-elf/4.6.0/c0_div\libgcc.a(_muldi3.o)
 .debug_line    0x0001e726       0xc9 D:\software_xqy\CCore_IDE/tool-chain/ccore-elf/lib/gcc/mcore-elf/4.6.0/c0_div\libgcc.a(_clzsi2.o)
 .debug_line    0x0001e7ef      0x1d6 D:\software_xqy\CCore_IDE/tool-chain/ccore-elf/lib/gcc/mcore-elf/4.6.0/c0_div\libgcc.a(_pack_df.o)
 .debug_line    0x0001e9c5      0x169 D:\software_xqy\CCore_IDE/tool-chain/ccore-elf/lib/gcc/mcore-elf/4.6.0/c0_div\libgcc.a(_unpack_df.o)
 .debug_line    0x0001eb2e      0x19b D:\software_xqy\CCore_IDE/tool-chain/ccore-elf/lib/gcc/mcore-elf/4.6.0/c0_div\libgcc.a(_fpcmp_parts_df.o)
 .debug_line    0x0001ecc9       0xcd D:\software_xqy\CCore_IDE/tool-chain/ccore-elf/lib/gcc/mcore-elf/4.6.0/c0_div\libgcc.a(_lshrdi3.o)
 .debug_line    0x0001ed96       0xcd D:\software_xqy\CCore_IDE/tool-chain/ccore-elf/lib/gcc/mcore-elf/4.6.0/c0_div\libgcc.a(_ashldi3.o)
 .debug_line    0x0001ee63       0x68 D:\software_xqy\CCore_IDE/tool-chain/ccore-elf/lib/gcc/mcore-elf/4.6.0/c0_div\libgcc.a(_clz.o)
 .debug_line    0x0001eecb       0xd5 D:\software_xqy\CCore_IDE/tool-chain/ccore-elf/mcore-elf/lib/c0_div\libc.a(lib_a-abort.o)
 .debug_line    0x0001efa0      0x19c D:\software_xqy\CCore_IDE/tool-chain/ccore-elf/mcore-elf/lib/c0_div\libc.a(lib_a-memcmp.o)
 .debug_line    0x0001f13c      0x23a D:\software_xqy\CCore_IDE/tool-chain/ccore-elf/mcore-elf/lib/c0_div\libc.a(lib_a-memset.o)
 .debug_line    0x0001f376      0x233 D:\software_xqy\CCore_IDE/tool-chain/ccore-elf/mcore-elf/lib/c0_div\libc.a(lib_a-s_modf.o)
 .debug_line    0x0001f5a9      0x3d0 D:\software_xqy\CCore_IDE/tool-chain/ccore-elf/mcore-elf/lib/c0_div\libc.a(lib_a-signal.o)
 .debug_line    0x0001f979      0x1d1 D:\software_xqy\CCore_IDE/tool-chain/ccore-elf/mcore-elf/lib/c0_div\libc.a(lib_a-signalr.o)
 .debug_line    0x0001fb4a      0x132 D:\software_xqy\CCore_IDE/tool-chain/ccore-elf/mcore-elf/lib/c0_div\libc.a(lib_a-strcat.o)
 .debug_line    0x0001fc7c      0x177 D:\software_xqy\CCore_IDE/tool-chain/ccore-elf/mcore-elf/lib/c0_div\libc.a(lib_a-strcmp.o)
 .debug_line    0x0001fdf3      0x126 D:\software_xqy\CCore_IDE/tool-chain/ccore-elf/mcore-elf/lib/c0_div\libc.a(lib_a-strcpy.o)
 .debug_line    0x0001ff19      0x1c8 D:\software_xqy\CCore_IDE/tool-chain/ccore-elf/mcore-elf/lib/c0_div\libc.a(lib_a-strlen.o)
 .debug_line    0x000200e1      0x11a D:\software_xqy\CCore_IDE/tool-chain/ccore-elf/mcore-elf/lib/c0_div\libc.a(lib_a-impure.o)
 .debug_line    0x000201fb      0x745 D:\software_xqy\CCore_IDE/tool-chain/ccore-elf/mcore-elf/lib/c0_div\libc.a(lib_a-mallocr.o)
 .debug_line    0x00020940      0x13a D:\software_xqy\CCore_IDE/tool-chain/ccore-elf/mcore-elf/lib/c0_div\libc.a(lib_a-mlock.o)
 .debug_line    0x00020a7a      0x275 D:\software_xqy\CCore_IDE/tool-chain/ccore-elf/mcore-elf/lib/c0_div\libc.a(lib_a-reent.o)
 .debug_line    0x00020cef      0x1b7 D:\software_xqy\CCore_IDE/tool-chain/ccore-elf/mcore-elf/lib/c0_div\libc.a(lib_a-sbrkr.o)
 .debug_line    0x00020ea6      0x3fa D:\software_xqy\CCore_IDE/tool-chain/ccore-elf/mcore-elf/lib/c0_div\libc.a(lib_a-freer.o)
 .debug_line    0x000212a0      0x190 D:\software_xqy\CCore_IDE/tool-chain/ccore-elf/mcore-elf/lib/c0_div\libcmb.a(sbrk.o)
 .debug_line    0x00021430       0xa3 D:\software_xqy\CCore_IDE/tool-chain/ccore-elf/mcore-elf/lib/c0_div\libcmb.a(write.o)
 .debug_line    0x000214d3       0x6e D:\software_xqy\CCore_IDE/tool-chain/ccore-elf/mcore-elf/lib/c0_div\libcmb.a(cmb-exit.o)
 .debug_line    0x00021541       0xa1 D:\software_xqy\CCore_IDE/tool-chain/ccore-elf/mcore-elf/lib/c0_div\libcmb.a(cmb-outbyte.o)
 .debug_line    0x000215e2       0x6c D:\software_xqy\CCore_IDE/tool-chain/ccore-elf/mcore-elf/lib/c0_div\libcmb.a(getpid.o)
 .debug_line    0x0002164e       0x88 D:\software_xqy\CCore_IDE/tool-chain/ccore-elf/mcore-elf/lib/c0_div\libcmb.a(kill.o)
 .debug_line    0x000216d6      0x5b9 D:\work\k205_gx\K205_360S\CORE\src\drv\libEflash.a(eflash.o)
 .debug_line    0x00021c8f       0xb2 D:\work\k205_gx\K205_360S\CORE\src\drv\libEflash.a(cache.o)
 .debug_line    0x00021d41      0xcb2 D:\work\k205_gx\K205_360S\CORE\src\drv\libAlgorithm.a(crypt.o)
 .debug_line    0x000229f3     0x1005 D:\work\k205_gx\K205_360S\CORE\src\drv\libAlgorithm.a(des.o)
 .debug_line    0x000239f8     0x32a6 D:\work\k205_gx\K205_360S\CORE\src\drv\libAlgorithm.a(lib.o)
 .debug_line    0x00026c9e      0x394 D:\work\k205_gx\K205_360S\CORE\src\drv\libAlgorithm.a(sha.o)
 .debug_line    0x00027032      0xc70 D:\work\k205_gx\K205_360S\CORE\src\drv\libAlgorithm.a(bigint.o)
 .debug_line    0x00027ca2     0x178d D:\work\k205_gx\K205_360S\CORE\src\security\algorithm\libAlg.a(algorithm.o)
 .debug_line    0x0002942f      0x350 D:\work\k205_gx\K205_360S\CORE\src\security\algorithm\libAlg.a(algorithm_hardware.o)
 .debug_line    0x0002977f     0x13f3 D:\work\k205_gx\K205_360S\CORE\src\security\hal\libcpuhal.a(cpuhal.o)
 .debug_line    0x0002ab72      0x973 D:\work\k205_gx\K205_360S\CORE\src\security\hal\libcpuhal.a(pci_drv.o)
 .debug_line    0x0002b4e5      0x376 D:\work\k205_gx\K205_360S\CORE\src\security\sec_datastore\libsecstore.a(dev_secstore.o)
 .debug_line    0x0002b85b      0x553 D:\work\k205_gx\K205_360S\CORE\src\security\sec_datastore\libsecstore.a(dev_secstore_key.o)
 .debug_line    0x0002bdae      0x5c6 D:\work\k205_gx\K205_360S\CORE\src\moddev\rfcard_mh1608\libnfc.a(ddi_rfcard_mh1608.o)
 .debug_line    0x0002c374     0x1d86 D:\work\k205_gx\K205_360S\CORE\src\moddev\rfcard_mh1608\libnfc.a(dev_rfcard_mh1608.o)
 .debug_line    0x0002e0fa      0xde9 D:\work\k205_gx\K205_360S\CORE\src\moddev\rfcard_mh1608\libnfc.a(drv_rfcard_mh1608.o)
 .debug_line    0x0002eee3      0x3ec D:\work\k205_gx\K205_360S\CORE\src\moddev\iccard\libicc.a(ddi_iccard.o)
 .debug_line    0x0002f2cf     0x20b5 D:\work\k205_gx\K205_360S\CORE\src\moddev\iccard\libicc.a(dev_iccard.o)
 .debug_line    0x00031384      0x8f9 D:\work\k205_gx\K205_360S\CORE\src\moddev\iccard\libicc.a(drv_iccard.o)
 .debug_line    0x00031c7d      0x6ed D:\work\k205_gx\K205_360S\CORE\src\moddev\iccard\libicc.a(icc_hardware.o)
 .debug_line    0x0003236a      0x4bd D:\work\k205_gx\K205_360S\CORE\src\moddev\bluetooth\libbt_lib.a(dev_bt_api.o)
 .debug_line    0x00032827     0x1bc6 D:\work\k205_gx\K205_360S\CORE\src\moddev\bluetooth\libbt_lib.a(yc1021.o)
 .debug_line    0x000343ed      0x3a2 D:\work\k205_gx\K205_360S\CORE\src\moddev\bluetooth\libbt_lib.a(app_fifo.o)
 .debug_line    0x0003478f       0xd8 D:\work\k205_gx\K205_360S\CORE\src\ccore\libReadChipSn.a(LibReadChipSN.o)

.debug_str      0x00000000    0x21352
 .debug_str     0x00000000      0x2a5 ./src/sysdrv/timer/timer.o
 .debug_str     0x000002a5      0x1db ./src/sysdrv/rtc/RTC.o
 .debug_str     0x00000480      0x1b7 ./src/sysdrv/flash/flash.o
 .debug_str     0x00000637      0x146 ./src/sysdrv/SysTick/systick.o
 .debug_str     0x0000077d       0xfa ./src/sysdev/wdt/dev_wdt.o
 .debug_str     0x00000877      0x370 ./src/sysdev/usb/dev_usb.o
 .debug_str     0x00000be7      0x1d4 ./src/sysdev/uart/dev_uart.o
 .debug_str     0x00000dbb      0x241 ./src/sysdev/time/dev_time.o
 .debug_str     0x00000ffc      0x17c ./src/sysdev/spi/dev_spimaster.o
 .debug_str     0x00001178      0x1c8 ./src/sysdev/rtc/dev_rtc.o
 .debug_str     0x00001340      0x2cc ./src/sysdev/gpio/dev_gpio.o
 .debug_str     0x0000160c      0x21f ./src/sysdev/flash/dev_flash.o
 .debug_str     0x0000182b      0x1a7 ./src/sysdev/adc/dev_adc.o
 .debug_str     0x000019d2      0xca0 ./src/sysbus/usb/drv_usb.o
 .debug_str     0x00002672      0x324 ./src/sysbus/uart/UART.o
 .debug_str     0x00002996      0x38b ./src/sysbus/spi/SPI_MASTER.o
 .debug_str     0x00002d21      0x6ad ./src/sysbus/gpio/gpio.o
 .debug_str     0x000033ce      0x2a5 ./src/security/security_common/convertdata.o
 .debug_str     0x00003673      0x13e ./src/security/security_common/security_common.o
 .debug_str     0x000037b1      0x246 ./src/security/secmgr/detect.o
 .debug_str     0x000039f7      0x110 ./src/security/key/key_dbg.o
 .debug_str     0x00003b07      0xefe ./src/security/app/cmd_proc.o
 .debug_str     0x00004a05      0x493 ./src/security/app/ex_func.o
 .debug_str     0x00004e98      0x3d6 ./src/security/app/file_auth.o
 .debug_str     0x0000526e      0x28c ./src/security/app/file_opt.o
 .debug_str     0x000054fa      0x1cb ./src/security/app/pci_func.o
 .debug_str     0x000056c5      0xf5e ./src/security/app/protocol.o
 .debug_str     0x00006623      0x4cf ./src/security/app/rootkey.o
 .debug_str     0x00006af2      0x47f ./src/security/app/sd_tamper.o
 .debug_str     0x00006f71      0x523 ./src/security/api/alg_api.o
 .debug_str     0x00007494      0x112 ./src/security/api/mem_api.o
 .debug_str     0x000075a6      0x422 ./src/moddrv/power/drv_power.o
 .debug_str     0x000079c8      0x25b ./src/moddrv/magcard/drv_magcard.o
 .debug_str     0x00007c23      0x283 ./src/moddrv/magcard/mcc_adc.o
 .debug_str     0x00007ea6      0x398 ./src/moddrv/lcd/drv_lcd.o
 .debug_str     0x0000823e      0x219 ./src/moddrv/lcd/drv_lcd_font_data.o
 .debug_str     0x00008457      0x2ee ./src/moddrv/keyboard/drv_key.o
 .debug_str     0x00008745      0x33c ./src/moddrv/beep/drv_beep.o
 .debug_str     0x00008a81      0x55d ./src/moddev/power/dev_power.o
 .debug_str     0x00008fde      0x1d6 ./src/moddev/magcard/ddi_magcard.o
 .debug_str     0x000091b4      0x1a8 ./src/moddev/magcard/dev_magcard.o
 .debug_str     0x0000935c      0x12e ./src/moddev/led/ddi_led.o
 .debug_str     0x0000948a      0x80a ./src/moddev/lcd/dev_lcd.o
 .debug_str     0x00009c94      0x45e ./src/moddev/keyboard/dev_key.o
 .debug_str     0x0000a0f2      0x540 ./src/moddev/bt_update/bt_update.o
 .debug_str     0x0000a632       0xce ./src/moddev/bt_update/crc16.o
 .debug_str     0x0000a700      0x480 ./src/moddev/bt_update/mpos_protocol.o
 .debug_str     0x0000ab80      0x197 ./src/moddev/beep/dev_beep.o
 .debug_str     0x0000ad17      0x3f5 ./src/main/main.o
 .debug_str     0x0000b10c      0x654 ./src/main/test.o
 .debug_str     0x0000b760      0x338 ./src/fun/dev_maths.o
 .debug_str     0x0000ba98      0x56f ./src/fs/fs_vs.o
 .debug_str     0x0000c007      0x517 ./src/drv/adc_dma.o
 .debug_str     0x0000c51e      0x43d ./src/drv/adc_drv.o
 .debug_str     0x0000c95b      0x960 ./src/drv/alg_drv.o
 .debug_str     0x0000d2bb      0x14f ./src/drv/cache_drv.o
 .debug_str     0x0000d40a      0x1dc ./src/drv/ccm_drv.o
 .debug_str     0x0000d5e6      0x412 ./src/drv/cpm_drv.o
 .debug_str     0x0000d9f8      0x4d4 ./src/drv/dmac_drv.o
 .debug_str     0x0000decc      0x38b ./src/drv/edma_drv.o
 .debug_str     0x0000e257      0x113 ./src/drv/eflash_drv.o
 .debug_str     0x0000e36a      0x3d0 ./src/drv/eport_drv.o
 .debug_str     0x0000e73a      0x2bd ./src/drv/i2c_drv.o
 .debug_str     0x0000e9f7      0x2a1 ./src/drv/pit32_drv.o
 .debug_str     0x0000ec98      0x272 ./src/drv/pit_drv.o
 .debug_str     0x0000ef0a      0x44f ./src/drv/pwm_drv.o
 .debug_str     0x0000f359       0xe9 ./src/drv/reset_drv.o
 .debug_str     0x0000f442      0x1d7 ./src/drv/rtc_drv.o
 .debug_str     0x0000f619      0x487 ./src/drv/spi_drv.o
 .debug_str     0x0000faa0      0x1aa ./src/drv/tc_drv.o
 .debug_str     0x0000fc4a      0x207 ./src/drv/uart_drv.o
 .debug_str     0x0000fe51      0x55f ./src/drv/usi_drv.o
 .debug_str     0x000103b0      0x122 ./src/drv/wdt_drv.o
 .debug_str     0x000104d2      0x20c ./src/common/alloc.o
 .debug_str     0x000106de      0x408 ./src/common/debug.o
 .debug_str     0x00010ae6       0xdc ./src/common/delay.o
 .debug_str     0x00010bc2      0x4fb ./src/common/download.o
 .debug_str     0x000110bd      0x40c ./src/common/misc.o
 .debug_str     0x000114c9      0x3ff ./src/common/syscfg.o
 .debug_str     0x000118c8      0x360 ./src/common/update.o
 .debug_str     0x00011c28       0xd1 ./src/ccore/AsmToC.o
 .debug_str     0x00011cf9       0xf4 ./src/ccore/Memory_API.o
 .debug_str     0x00011ded      0x11c ./src/ccore/interrupt.o
 .debug_str     0x00011f09      0x197 ./src/ccore/vector_rce.o
 .debug_str     0x000120a0       0x63 ./src/ccore/vector_table.o
 .debug_str     0x00012103     0x2170 ./src/api/dev_api.o
 .debug_str     0x00014273      0x24a D:\software_xqy\CCore_IDE/tool-chain/ccore-elf/lib/gcc/mcore-elf/4.6.0/c0_div\libgcc.a(_addsub_df.o)
 .debug_str     0x000144bd      0x21c D:\software_xqy\CCore_IDE/tool-chain/ccore-elf/lib/gcc/mcore-elf/4.6.0/c0_div\libgcc.a(_mul_df.o)
 .debug_str     0x000146d9      0x20c D:\software_xqy\CCore_IDE/tool-chain/ccore-elf/lib/gcc/mcore-elf/4.6.0/c0_div\libgcc.a(_div_df.o)
 .debug_str     0x000148e5      0x1d2 D:\software_xqy\CCore_IDE/tool-chain/ccore-elf/lib/gcc/mcore-elf/4.6.0/c0_div\libgcc.a(_eq_df.o)
 .debug_str     0x00014ab7      0x1d2 D:\software_xqy\CCore_IDE/tool-chain/ccore-elf/lib/gcc/mcore-elf/4.6.0/c0_div\libgcc.a(_ne_df.o)
 .debug_str     0x00014c89      0x1d2 D:\software_xqy\CCore_IDE/tool-chain/ccore-elf/lib/gcc/mcore-elf/4.6.0/c0_div\libgcc.a(_gt_df.o)
 .debug_str     0x00014e5b      0x1d2 D:\software_xqy\CCore_IDE/tool-chain/ccore-elf/lib/gcc/mcore-elf/4.6.0/c0_div\libgcc.a(_lt_df.o)
 .debug_str     0x0001502d      0x1bf D:\software_xqy\CCore_IDE/tool-chain/ccore-elf/lib/gcc/mcore-elf/4.6.0/c0_div\libgcc.a(_si_to_df.o)
 .debug_str     0x000151ec      0x1da D:\software_xqy\CCore_IDE/tool-chain/ccore-elf/lib/gcc/mcore-elf/4.6.0/c0_div\libgcc.a(_df_to_si.o)
 .debug_str     0x000153c6      0x17b D:\software_xqy\CCore_IDE/tool-chain/ccore-elf/lib/gcc/mcore-elf/4.6.0/c0_div\libgcc.a(_thenan_df.o)
 .debug_str     0x00015541      0x189 D:\software_xqy\CCore_IDE/tool-chain/ccore-elf/lib/gcc/mcore-elf/4.6.0/c0_div\libgcc.a(_muldi3.o)
 .debug_str     0x000156ca      0x15b D:\software_xqy\CCore_IDE/tool-chain/ccore-elf/lib/gcc/mcore-elf/4.6.0/c0_div\libgcc.a(_clzsi2.o)
 .debug_str     0x00015825      0x1d9 D:\software_xqy\CCore_IDE/tool-chain/ccore-elf/lib/gcc/mcore-elf/4.6.0/c0_div\libgcc.a(_pack_df.o)
 .debug_str     0x000159fe      0x1bb D:\software_xqy\CCore_IDE/tool-chain/ccore-elf/lib/gcc/mcore-elf/4.6.0/c0_div\libgcc.a(_unpack_df.o)
 .debug_str     0x00015bb9      0x19e D:\software_xqy\CCore_IDE/tool-chain/ccore-elf/lib/gcc/mcore-elf/4.6.0/c0_div\libgcc.a(_fpcmp_parts_df.o)
 .debug_str     0x00015d57      0x17b D:\software_xqy\CCore_IDE/tool-chain/ccore-elf/lib/gcc/mcore-elf/4.6.0/c0_div\libgcc.a(_lshrdi3.o)
 .debug_str     0x00015ed2      0x17b D:\software_xqy\CCore_IDE/tool-chain/ccore-elf/lib/gcc/mcore-elf/4.6.0/c0_div\libgcc.a(_ashldi3.o)
 .debug_str     0x0001604d      0x13e D:\software_xqy\CCore_IDE/tool-chain/ccore-elf/lib/gcc/mcore-elf/4.6.0/c0_div\libgcc.a(_clz.o)
 .debug_str     0x0001618b      0x134 D:\software_xqy\CCore_IDE/tool-chain/ccore-elf/mcore-elf/lib/c0_div\libc.a(lib_a-abort.o)
 .debug_str     0x000162bf      0x13d D:\software_xqy\CCore_IDE/tool-chain/ccore-elf/mcore-elf/lib/c0_div\libc.a(lib_a-memcmp.o)
 .debug_str     0x000163fc      0x151 D:\software_xqy\CCore_IDE/tool-chain/ccore-elf/mcore-elf/lib/c0_div\libc.a(lib_a-memset.o)
 .debug_str     0x0001654d      0x19e D:\software_xqy\CCore_IDE/tool-chain/ccore-elf/mcore-elf/lib/c0_div\libc.a(lib_a-s_modf.o)
 .debug_str     0x000166eb      0x55a D:\software_xqy\CCore_IDE/tool-chain/ccore-elf/mcore-elf/lib/c0_div\libc.a(lib_a-signal.o)
 .debug_str     0x00016c45      0x503 D:\software_xqy\CCore_IDE/tool-chain/ccore-elf/mcore-elf/lib/c0_div\libc.a(lib_a-signalr.o)
 .debug_str     0x00017148      0x141 D:\software_xqy\CCore_IDE/tool-chain/ccore-elf/mcore-elf/lib/c0_div\libc.a(lib_a-strcat.o)
 .debug_str     0x00017289      0x136 D:\software_xqy\CCore_IDE/tool-chain/ccore-elf/mcore-elf/lib/c0_div\libc.a(lib_a-strcmp.o)
 .debug_str     0x000173bf      0x158 D:\software_xqy\CCore_IDE/tool-chain/ccore-elf/mcore-elf/lib/c0_div\libc.a(lib_a-strcpy.o)
 .debug_str     0x00017517      0x150 D:\software_xqy\CCore_IDE/tool-chain/ccore-elf/mcore-elf/lib/c0_div\libc.a(lib_a-strlen.o)
 .debug_str     0x00017667      0x507 D:\software_xqy\CCore_IDE/tool-chain/ccore-elf/mcore-elf/lib/c0_div\libc.a(lib_a-impure.o)
 .debug_str     0x00017b6e      0x6de D:\software_xqy\CCore_IDE/tool-chain/ccore-elf/mcore-elf/lib/c0_div\libc.a(lib_a-mallocr.o)
 .debug_str     0x0001824c      0x510 D:\software_xqy\CCore_IDE/tool-chain/ccore-elf/mcore-elf/lib/c0_div\libc.a(lib_a-mlock.o)
 .debug_str     0x0001875c      0x52c D:\software_xqy\CCore_IDE/tool-chain/ccore-elf/mcore-elf/lib/c0_div\libc.a(lib_a-reent.o)
 .debug_str     0x00018c88      0x4fe D:\software_xqy\CCore_IDE/tool-chain/ccore-elf/mcore-elf/lib/c0_div\libc.a(lib_a-sbrkr.o)
 .debug_str     0x00019186      0x630 D:\software_xqy\CCore_IDE/tool-chain/ccore-elf/mcore-elf/lib/c0_div\libc.a(lib_a-freer.o)
 .debug_str     0x000197b6      0x164 D:\software_xqy\CCore_IDE/tool-chain/ccore-elf/mcore-elf/lib/c0_div\libcmb.a(sbrk.o)
 .debug_str     0x0001991a       0xad D:\software_xqy\CCore_IDE/tool-chain/ccore-elf/mcore-elf/lib/c0_div\libcmb.a(write.o)
 .debug_str     0x000199c7       0xa3 D:\software_xqy\CCore_IDE/tool-chain/ccore-elf/mcore-elf/lib/c0_div\libcmb.a(cmb-exit.o)
 .debug_str     0x00019a6a       0xad D:\software_xqy\CCore_IDE/tool-chain/ccore-elf/mcore-elf/lib/c0_div\libcmb.a(cmb-outbyte.o)
 .debug_str     0x00019b17       0xa3 D:\software_xqy\CCore_IDE/tool-chain/ccore-elf/mcore-elf/lib/c0_div\libcmb.a(getpid.o)
 .debug_str     0x00019bba       0xa5 D:\software_xqy\CCore_IDE/tool-chain/ccore-elf/mcore-elf/lib/c0_div\libcmb.a(kill.o)
 .debug_str     0x00019c5f      0x3b1 D:\work\k205_gx\K205_360S\CORE\src\drv\libEflash.a(eflash.o)
 .debug_str     0x0001a010       0x91 D:\work\k205_gx\K205_360S\CORE\src\drv\libEflash.a(cache.o)
 .debug_str     0x0001a0a1      0x3d1 D:\work\k205_gx\K205_360S\CORE\src\drv\libAlgorithm.a(crypt.o)
 .debug_str     0x0001a472      0x2fb D:\work\k205_gx\K205_360S\CORE\src\drv\libAlgorithm.a(des.o)
 .debug_str     0x0001a76d      0x810 D:\work\k205_gx\K205_360S\CORE\src\drv\libAlgorithm.a(lib.o)
 .debug_str     0x0001af7d      0x158 D:\work\k205_gx\K205_360S\CORE\src\drv\libAlgorithm.a(sha.o)
 .debug_str     0x0001b0d5      0x232 D:\work\k205_gx\K205_360S\CORE\src\drv\libAlgorithm.a(bigint.o)
 .debug_str     0x0001b307      0x717 D:\work\k205_gx\K205_360S\CORE\src\security\algorithm\libAlg.a(algorithm.o)
 .debug_str     0x0001ba1e      0x361 D:\work\k205_gx\K205_360S\CORE\src\security\algorithm\libAlg.a(algorithm_hardware.o)
 .debug_str     0x0001bd7f      0x5d8 D:\work\k205_gx\K205_360S\CORE\src\security\hal\libcpuhal.a(cpuhal.o)
 .debug_str     0x0001c357      0x373 D:\work\k205_gx\K205_360S\CORE\src\security\hal\libcpuhal.a(pci_drv.o)
 .debug_str     0x0001c6ca      0x603 D:\work\k205_gx\K205_360S\CORE\src\security\sec_datastore\libsecstore.a(dev_secstore.o)
 .debug_str     0x0001cccd      0x572 D:\work\k205_gx\K205_360S\CORE\src\security\sec_datastore\libsecstore.a(dev_secstore_key.o)
 .debug_str     0x0001d23f      0x609 D:\work\k205_gx\K205_360S\CORE\src\moddev\rfcard_mh1608\libnfc.a(ddi_rfcard_mh1608.o)
 .debug_str     0x0001d848      0xc54 D:\work\k205_gx\K205_360S\CORE\src\moddev\rfcard_mh1608\libnfc.a(dev_rfcard_mh1608.o)
 .debug_str     0x0001e49c      0x792 D:\work\k205_gx\K205_360S\CORE\src\moddev\rfcard_mh1608\libnfc.a(drv_rfcard_mh1608.o)
 .debug_str     0x0001ec2e      0x217 D:\work\k205_gx\K205_360S\CORE\src\moddev\iccard\libicc.a(ddi_iccard.o)
 .debug_str     0x0001ee45      0x9ed D:\work\k205_gx\K205_360S\CORE\src\moddev\iccard\libicc.a(dev_iccard.o)
 .debug_str     0x0001f832      0x800 D:\work\k205_gx\K205_360S\CORE\src\moddev\iccard\libicc.a(drv_iccard.o)
 .debug_str     0x00020032      0x517 D:\work\k205_gx\K205_360S\CORE\src\moddev\iccard\libicc.a(icc_hardware.o)
 .debug_str     0x00020549      0x222 D:\work\k205_gx\K205_360S\CORE\src\moddev\bluetooth\libbt_lib.a(dev_bt_api.o)
 .debug_str     0x0002076b      0x991 D:\work\k205_gx\K205_360S\CORE\src\moddev\bluetooth\libbt_lib.a(yc1021.o)
 .debug_str     0x000210fc      0x191 D:\work\k205_gx\K205_360S\CORE\src\moddev\bluetooth\libbt_lib.a(app_fifo.o)
 .debug_str     0x0002128d       0xc5 D:\work\k205_gx\K205_360S\CORE\src\ccore\libReadChipSn.a(LibReadChipSN.o)

.comment        0x00000000       0x11
 .comment       0x00000000       0x11 ./src/sysdrv/timer/timer.o
                                 0x12 (size before relaxing)
 .comment       0x00000000       0x12 ./src/sysdrv/rtc/RTC.o
 .comment       0x00000000       0x12 ./src/sysdrv/flash/flash.o
 .comment       0x00000000       0x12 ./src/sysdrv/SysTick/systick.o
 .comment       0x00000000       0x12 ./src/sysdev/wdt/dev_wdt.o
 .comment       0x00000000       0x12 ./src/sysdev/usb/dev_usb.o
 .comment       0x00000000       0x12 ./src/sysdev/uart/dev_uart.o
 .comment       0x00000000       0x12 ./src/sysdev/time/dev_time.o
 .comment       0x00000000       0x12 ./src/sysdev/spi/dev_spimaster.o
 .comment       0x00000000       0x12 ./src/sysdev/rtc/dev_rtc.o
 .comment       0x00000000       0x12 ./src/sysdev/gpio/dev_gpio.o
 .comment       0x00000000       0x12 ./src/sysdev/flash/dev_flash.o
 .comment       0x00000000       0x12 ./src/sysdev/adc/dev_adc.o
 .comment       0x00000000       0x12 ./src/sysbus/usb/drv_usb.o
 .comment       0x00000000       0x12 ./src/sysbus/uart/UART.o
 .comment       0x00000000       0x12 ./src/sysbus/spi/SPI_MASTER.o
 .comment       0x00000000       0x12 ./src/sysbus/gpio/gpio.o
 .comment       0x00000000       0x12 ./src/security/security_common/convertdata.o
 .comment       0x00000000       0x12 ./src/security/security_common/security_common.o
 .comment       0x00000000       0x12 ./src/security/secmgr/detect.o
 .comment       0x00000000       0x12 ./src/security/key/key_dbg.o
 .comment       0x00000000       0x12 ./src/security/app/cmd_proc.o
 .comment       0x00000000       0x12 ./src/security/app/ex_func.o
 .comment       0x00000000       0x12 ./src/security/app/file_auth.o
 .comment       0x00000000       0x12 ./src/security/app/file_opt.o
 .comment       0x00000000       0x12 ./src/security/app/pci_func.o
 .comment       0x00000000       0x12 ./src/security/app/protocol.o
 .comment       0x00000000       0x12 ./src/security/app/rootkey.o
 .comment       0x00000000       0x12 ./src/security/app/sd_tamper.o
 .comment       0x00000000       0x12 ./src/security/api/alg_api.o
 .comment       0x00000000       0x12 ./src/security/api/mem_api.o
 .comment       0x00000000       0x12 ./src/moddrv/power/drv_power.o
 .comment       0x00000000       0x12 ./src/moddrv/magcard/drv_magcard.o
 .comment       0x00000000       0x12 ./src/moddrv/magcard/mcc_adc.o
 .comment       0x00000000       0x12 ./src/moddrv/lcd/drv_lcd.o
 .comment       0x00000000       0x12 ./src/moddrv/lcd/drv_lcd_font_data.o
 .comment       0x00000000       0x12 ./src/moddrv/keyboard/drv_key.o
 .comment       0x00000000       0x12 ./src/moddrv/beep/drv_beep.o
 .comment       0x00000000       0x12 ./src/moddev/power/dev_power.o
 .comment       0x00000000       0x12 ./src/moddev/magcard/ddi_magcard.o
 .comment       0x00000000       0x12 ./src/moddev/magcard/dev_magcard.o
 .comment       0x00000000       0x12 ./src/moddev/led/ddi_led.o
 .comment       0x00000000       0x12 ./src/moddev/lcd/dev_lcd.o
 .comment       0x00000000       0x12 ./src/moddev/keyboard/dev_key.o
 .comment       0x00000000       0x12 ./src/moddev/bt_update/bt_update.o
 .comment       0x00000000       0x12 ./src/moddev/bt_update/crc16.o
 .comment       0x00000000       0x12 ./src/moddev/bt_update/mpos_protocol.o
 .comment       0x00000000       0x12 ./src/moddev/beep/dev_beep.o
 .comment       0x00000000       0x12 ./src/main/main.o
 .comment       0x00000000       0x12 ./src/main/test.o
 .comment       0x00000000       0x12 ./src/fun/dev_maths.o
 .comment       0x00000000       0x12 ./src/fs/fs_vs.o
 .comment       0x00000000       0x12 ./src/drv/adc_dma.o
 .comment       0x00000000       0x12 ./src/drv/adc_drv.o
 .comment       0x00000000       0x12 ./src/drv/alg_drv.o
 .comment       0x00000000       0x12 ./src/drv/cache_drv.o
 .comment       0x00000000       0x12 ./src/drv/ccm_drv.o
 .comment       0x00000000       0x12 ./src/drv/cpm_drv.o
 .comment       0x00000000       0x12 ./src/drv/dmac_drv.o
 .comment       0x00000000       0x12 ./src/drv/edma_drv.o
 .comment       0x00000000       0x12 ./src/drv/eflash_drv.o
 .comment       0x00000000       0x12 ./src/drv/eport_drv.o
 .comment       0x00000000       0x12 ./src/drv/i2c_drv.o
 .comment       0x00000000       0x12 ./src/drv/pit32_drv.o
 .comment       0x00000000       0x12 ./src/drv/pit_drv.o
 .comment       0x00000000       0x12 ./src/drv/pwm_drv.o
 .comment       0x00000000       0x12 ./src/drv/reset_drv.o
 .comment       0x00000000       0x12 ./src/drv/rtc_drv.o
 .comment       0x00000000       0x12 ./src/drv/spi_drv.o
 .comment       0x00000000       0x12 ./src/drv/tc_drv.o
 .comment       0x00000000       0x12 ./src/drv/uart_drv.o
 .comment       0x00000000       0x12 ./src/drv/usi_drv.o
 .comment       0x00000000       0x12 ./src/drv/wdt_drv.o
 .comment       0x00000000       0x12 ./src/common/alloc.o
 .comment       0x00000000       0x12 ./src/common/debug.o
 .comment       0x00000000       0x12 ./src/common/delay.o
 .comment       0x00000000       0x12 ./src/common/download.o
 .comment       0x00000000       0x12 ./src/common/misc.o
 .comment       0x00000000       0x12 ./src/common/syscfg.o
 .comment       0x00000000       0x12 ./src/common/update.o
 .comment       0x00000000       0x12 ./src/ccore/AsmToC.o
 .comment       0x00000000       0x12 ./src/ccore/Memory_API.o
 .comment       0x00000000       0x12 ./src/ccore/interrupt.o
 .comment       0x00000000       0x12 ./src/ccore/vector_rce.o
 .comment       0x00000000       0x12 ./src/ccore/vector_table.o
 .comment       0x00000000       0x12 ./src/api/dev_api.o
 .comment       0x00000000       0x12 D:\software_xqy\CCore_IDE/tool-chain/ccore-elf/lib/gcc/mcore-elf/4.6.0/c0_div\libgcc.a(_addsub_df.o)
 .comment       0x00000000       0x12 D:\software_xqy\CCore_IDE/tool-chain/ccore-elf/lib/gcc/mcore-elf/4.6.0/c0_div\libgcc.a(_mul_df.o)
 .comment       0x00000000       0x12 D:\software_xqy\CCore_IDE/tool-chain/ccore-elf/lib/gcc/mcore-elf/4.6.0/c0_div\libgcc.a(_div_df.o)
 .comment       0x00000000       0x12 D:\software_xqy\CCore_IDE/tool-chain/ccore-elf/lib/gcc/mcore-elf/4.6.0/c0_div\libgcc.a(_eq_df.o)
 .comment       0x00000000       0x12 D:\software_xqy\CCore_IDE/tool-chain/ccore-elf/lib/gcc/mcore-elf/4.6.0/c0_div\libgcc.a(_ne_df.o)
 .comment       0x00000000       0x12 D:\software_xqy\CCore_IDE/tool-chain/ccore-elf/lib/gcc/mcore-elf/4.6.0/c0_div\libgcc.a(_gt_df.o)
 .comment       0x00000000       0x12 D:\software_xqy\CCore_IDE/tool-chain/ccore-elf/lib/gcc/mcore-elf/4.6.0/c0_div\libgcc.a(_lt_df.o)
 .comment       0x00000000       0x12 D:\software_xqy\CCore_IDE/tool-chain/ccore-elf/lib/gcc/mcore-elf/4.6.0/c0_div\libgcc.a(_si_to_df.o)
 .comment       0x00000000       0x12 D:\software_xqy\CCore_IDE/tool-chain/ccore-elf/lib/gcc/mcore-elf/4.6.0/c0_div\libgcc.a(_df_to_si.o)
 .comment       0x00000000       0x12 D:\software_xqy\CCore_IDE/tool-chain/ccore-elf/lib/gcc/mcore-elf/4.6.0/c0_div\libgcc.a(_thenan_df.o)
 .comment       0x00000000       0x12 D:\software_xqy\CCore_IDE/tool-chain/ccore-elf/lib/gcc/mcore-elf/4.6.0/c0_div\libgcc.a(_muldi3.o)
 .comment       0x00000000       0x12 D:\software_xqy\CCore_IDE/tool-chain/ccore-elf/lib/gcc/mcore-elf/4.6.0/c0_div\libgcc.a(_clzsi2.o)
 .comment       0x00000000       0x12 D:\software_xqy\CCore_IDE/tool-chain/ccore-elf/lib/gcc/mcore-elf/4.6.0/c0_div\libgcc.a(_pack_df.o)
 .comment       0x00000000       0x12 D:\software_xqy\CCore_IDE/tool-chain/ccore-elf/lib/gcc/mcore-elf/4.6.0/c0_div\libgcc.a(_unpack_df.o)
 .comment       0x00000000       0x12 D:\software_xqy\CCore_IDE/tool-chain/ccore-elf/lib/gcc/mcore-elf/4.6.0/c0_div\libgcc.a(_fpcmp_parts_df.o)
 .comment       0x00000000       0x12 D:\software_xqy\CCore_IDE/tool-chain/ccore-elf/lib/gcc/mcore-elf/4.6.0/c0_div\libgcc.a(_lshrdi3.o)
 .comment       0x00000000       0x12 D:\software_xqy\CCore_IDE/tool-chain/ccore-elf/lib/gcc/mcore-elf/4.6.0/c0_div\libgcc.a(_ashldi3.o)
 .comment       0x00000000       0x12 D:\software_xqy\CCore_IDE/tool-chain/ccore-elf/lib/gcc/mcore-elf/4.6.0/c0_div\libgcc.a(_clz.o)
 .comment       0x00000000       0x12 D:\software_xqy\CCore_IDE/tool-chain/ccore-elf/mcore-elf/lib/c0_div\libc.a(lib_a-abort.o)
 .comment       0x00000000       0x12 D:\software_xqy\CCore_IDE/tool-chain/ccore-elf/mcore-elf/lib/c0_div\libc.a(lib_a-memcmp.o)
 .comment       0x00000000       0x12 D:\software_xqy\CCore_IDE/tool-chain/ccore-elf/mcore-elf/lib/c0_div\libc.a(lib_a-memset.o)
 .comment       0x00000000       0x12 D:\software_xqy\CCore_IDE/tool-chain/ccore-elf/mcore-elf/lib/c0_div\libc.a(lib_a-s_modf.o)
 .comment       0x00000000       0x12 D:\software_xqy\CCore_IDE/tool-chain/ccore-elf/mcore-elf/lib/c0_div\libc.a(lib_a-signal.o)
 .comment       0x00000000       0x12 D:\software_xqy\CCore_IDE/tool-chain/ccore-elf/mcore-elf/lib/c0_div\libc.a(lib_a-signalr.o)
 .comment       0x00000000       0x12 D:\software_xqy\CCore_IDE/tool-chain/ccore-elf/mcore-elf/lib/c0_div\libc.a(lib_a-strcat.o)
 .comment       0x00000000       0x12 D:\software_xqy\CCore_IDE/tool-chain/ccore-elf/mcore-elf/lib/c0_div\libc.a(lib_a-strcmp.o)
 .comment       0x00000000       0x12 D:\software_xqy\CCore_IDE/tool-chain/ccore-elf/mcore-elf/lib/c0_div\libc.a(lib_a-strcpy.o)
 .comment       0x00000000       0x12 D:\software_xqy\CCore_IDE/tool-chain/ccore-elf/mcore-elf/lib/c0_div\libc.a(lib_a-strlen.o)
 .comment       0x00000000       0x12 D:\software_xqy\CCore_IDE/tool-chain/ccore-elf/mcore-elf/lib/c0_div\libc.a(lib_a-impure.o)
 .comment       0x00000000       0x12 D:\software_xqy\CCore_IDE/tool-chain/ccore-elf/mcore-elf/lib/c0_div\libc.a(lib_a-mallocr.o)
 .comment       0x00000000       0x12 D:\software_xqy\CCore_IDE/tool-chain/ccore-elf/mcore-elf/lib/c0_div\libc.a(lib_a-mlock.o)
 .comment       0x00000000       0x12 D:\software_xqy\CCore_IDE/tool-chain/ccore-elf/mcore-elf/lib/c0_div\libc.a(lib_a-reent.o)
 .comment       0x00000000       0x12 D:\software_xqy\CCore_IDE/tool-chain/ccore-elf/mcore-elf/lib/c0_div\libc.a(lib_a-sbrkr.o)
 .comment       0x00000000       0x12 D:\software_xqy\CCore_IDE/tool-chain/ccore-elf/mcore-elf/lib/c0_div\libc.a(lib_a-freer.o)
 .comment       0x00000000       0x12 D:\software_xqy\CCore_IDE/tool-chain/ccore-elf/mcore-elf/lib/c0_div\libcmb.a(sbrk.o)
 .comment       0x00000000       0x12 D:\software_xqy\CCore_IDE/tool-chain/ccore-elf/mcore-elf/lib/c0_div\libcmb.a(write.o)
 .comment       0x00000000       0x12 D:\software_xqy\CCore_IDE/tool-chain/ccore-elf/mcore-elf/lib/c0_div\libcmb.a(cmb-exit.o)
 .comment       0x00000000       0x12 D:\software_xqy\CCore_IDE/tool-chain/ccore-elf/mcore-elf/lib/c0_div\libcmb.a(cmb-outbyte.o)
 .comment       0x00000000       0x12 D:\software_xqy\CCore_IDE/tool-chain/ccore-elf/mcore-elf/lib/c0_div\libcmb.a(getpid.o)
 .comment       0x00000000       0x12 D:\software_xqy\CCore_IDE/tool-chain/ccore-elf/mcore-elf/lib/c0_div\libcmb.a(kill.o)
 .comment       0x00000000       0x12 D:\work\k205_gx\K205_360S\CORE\src\drv\libEflash.a(eflash.o)
 .comment       0x00000000       0x12 D:\work\k205_gx\K205_360S\CORE\src\drv\libEflash.a(cache.o)
 .comment       0x00000000       0x12 D:\work\k205_gx\K205_360S\CORE\src\drv\libCUni360S_mcc.a(mcc_bsp.o)
 .comment       0x00000000       0x12 D:\work\k205_gx\K205_360S\CORE\src\drv\libCUni360S_mcc.a(mcc_decode.o)
 .comment       0x00000000       0x12 D:\work\k205_gx\K205_360S\CORE\src\drv\libCUni360S_mcc.a(mcc_lib.o)
 .comment       0x00000000       0x12 D:\work\k205_gx\K205_360S\CORE\src\drv\libAlgorithm.a(crypt.o)
 .comment       0x00000000       0x12 D:\work\k205_gx\K205_360S\CORE\src\drv\libAlgorithm.a(des.o)
 .comment       0x00000000       0x12 D:\work\k205_gx\K205_360S\CORE\src\drv\libAlgorithm.a(lib.o)
 .comment       0x00000000       0x12 D:\work\k205_gx\K205_360S\CORE\src\drv\libAlgorithm.a(sha.o)
 .comment       0x00000000       0x12 D:\work\k205_gx\K205_360S\CORE\src\drv\libAlgorithm.a(bigint.o)
 .comment       0x00000000       0x12 D:\work\k205_gx\K205_360S\CORE\src\security\algorithm\libAlg.a(algorithm.o)
 .comment       0x00000000       0x12 D:\work\k205_gx\K205_360S\CORE\src\security\algorithm\libAlg.a(algorithm_hardware.o)
 .comment       0x00000000       0x12 D:\work\k205_gx\K205_360S\CORE\src\security\hal\libcpuhal.a(cpuhal.o)
 .comment       0x00000000       0x12 D:\work\k205_gx\K205_360S\CORE\src\security\hal\libcpuhal.a(pci_drv.o)
 .comment       0x00000000       0x12 D:\work\k205_gx\K205_360S\CORE\src\security\sec_datastore\libsecstore.a(dev_secstore.o)
 .comment       0x00000000       0x12 D:\work\k205_gx\K205_360S\CORE\src\security\sec_datastore\libsecstore.a(dev_secstore_key.o)
 .comment       0x00000000       0x12 D:\work\k205_gx\K205_360S\CORE\src\moddev\rfcard_mh1608\libnfc.a(ddi_rfcard_mh1608.o)
 .comment       0x00000000       0x12 D:\work\k205_gx\K205_360S\CORE\src\moddev\rfcard_mh1608\libnfc.a(dev_rfcard_mh1608.o)
 .comment       0x00000000       0x12 D:\work\k205_gx\K205_360S\CORE\src\moddev\rfcard_mh1608\libnfc.a(drv_rfcard_mh1608.o)
 .comment       0x00000000       0x12 D:\work\k205_gx\K205_360S\CORE\src\moddev\iccard\libicc.a(ddi_iccard.o)
 .comment       0x00000000       0x12 D:\work\k205_gx\K205_360S\CORE\src\moddev\iccard\libicc.a(dev_iccard.o)
 .comment       0x00000000       0x12 D:\work\k205_gx\K205_360S\CORE\src\moddev\iccard\libicc.a(drv_iccard.o)
 .comment       0x00000000       0x12 D:\work\k205_gx\K205_360S\CORE\src\moddev\iccard\libicc.a(icc_hardware.o)
 .comment       0x00000000       0x12 D:\work\k205_gx\K205_360S\CORE\src\moddev\bluetooth\libbt_lib.a(dev_bt_api.o)
 .comment       0x00000000       0x12 D:\work\k205_gx\K205_360S\CORE\src\moddev\bluetooth\libbt_lib.a(yc1021.o)
 .comment       0x00000000       0x12 D:\work\k205_gx\K205_360S\CORE\src\moddev\bluetooth\libbt_lib.a(app_fifo.o)
 .comment       0x00000000       0x12 D:\work\k205_gx\K205_360S\CORE\src\ccore\libReadChipSn.a(LibReadChipSN.o)

.stab           0x00000000      0x324
 .stab          0x00000000      0x150 ./src/ccore/crt0.o
 .stab          0x00000150      0x1d4 ./src/ccore/interrupt_support.o
                                0x1e0 (size before relaxing)

.stabstr        0x00000000       0x36
 .stabstr       0x00000000       0x36 ./src/ccore/crt0.o
